A51 MACRO ASSEMBLER  MAIN                                                                 12/19/2019 15:45:25 PAGE     1


MACRO ASSEMBLER A51 V8.2.7.0
OBJECT MODULE PLACED IN .\Objects\main.OBJ
ASSEMBLER INVOKED BY: C:\Keil_v5\C51\BIN\A51.EXE .\Objects\main.src PR(.\Listings\main.ls1) EP DEBUG

LOC  OBJ            LINE     SOURCE

                       1     ; .\Objects\main.SRC generated from: main.c
                       2     ; COMPILER INVOKED BY:
                       3     ;        C:\Keil_v5\C51\BIN\C51.EXE main.c OPTIMIZE(8,SPEED) BROWSE DEBUG OBJECTEXTEND PRIN
                             T(.\Listings\main.lst) SRC(.\Objects\main.SRC)
                       4     
                       5     $nomod51 
                       6     
                       7     NAME    MAIN
                       8     
  0095                 9     RIGHT   BIT     090H.5
  0080                10     P0      DATA    080H
  0090                11     P1      DATA    090H
  00A0                12     P2      DATA    0A0H
  00B0                13     P3      DATA    0B0H
  00B4                14     T0      BIT     0B0H.4
  00D6                15     AC      BIT     0D0H.6
  00B5                16     T1      BIT     0B0H.5
  00AF                17     EA      BIT     0A8H.7
  0090                18     SOUND   BIT     090H.0
  00B5                19     T_DAT   BIT     0B0H.5
  00A8                20     IE      DATA    0A8H
  00B6                21     T_CLK   BIT     0B0H.6
  00A4                22     EN      BIT     0A0H.4
  0091                23     DQ      BIT     090H.1
  00B7                24     RD      BIT     0B0H.7
  00AC                25     ES      BIT     0A8H.4
  00B8                26     IP      DATA    0B8H
  0098                27     RI      BIT     098H.0
  00B2                28     INT0    BIT     0B0H.2
  00D7                29     CY      BIT     0D0H.7
  0099                30     TI      BIT     098H.1
  00B3                31     INT1    BIT     0B0H.3
  00BC                32     PS      BIT     0B8H.4
  0081                33     SP      DATA    081H
  0092                34     UP      BIT     090H.2
  00A3                35     RS      BIT     0A0H.3
  00D2                36     OV      BIT     0D0H.2
  00A2                37     RW      BIT     0A0H.2
  00B6                38     WR      BIT     0B0H.6
  0094                39     LEFT    BIT     090H.4
  00B7                40     T_RST   BIT     0B0H.7
  0099                41     SBUF    DATA    099H
  0087                42     PCON    DATA    087H
  0098                43     SCON    DATA    098H
  0089                44     TMOD    DATA    089H
  0088                45     TCON    DATA    088H
  0093                46     DOWN    BIT     090H.3
  0096                47     EXIT    BIT     090H.6
  0089                48     IE0     BIT     088H.1
  008B                49     IE1     BIT     088H.3
  00F0                50     B       DATA    0F0H
  00A0                51     CS1     BIT     0A0H.0
  00E0                52     ACC     DATA    0E0H
  00A1                53     CS2     BIT     0A0H.1
  00A9                54     ET0     BIT     0A8H.1
  00AB                55     ET1     BIT     0A8H.3
  008D                56     TF0     BIT     088H.5
  008F                57     TF1     BIT     088H.7
A51 MACRO ASSEMBLER  MAIN                                                                 12/19/2019 15:45:25 PAGE     2

  009A                58     RB8     BIT     098H.2
  008C                59     TH0     DATA    08CH
  00A8                60     EX0     BIT     0A8H.0
  0088                61     IT0     BIT     088H.0
  008D                62     TH1     DATA    08DH
  009B                63     TB8     BIT     098H.3
  00AA                64     EX1     BIT     0A8H.2
  008A                65     IT1     BIT     088H.2
  00D0                66     P       BIT     0D0H.0
  009F                67     SM0     BIT     098H.7
  008A                68     TL0     DATA    08AH
  009E                69     SM1     BIT     098H.6
  008B                70     TL1     DATA    08BH
  009D                71     SM2     BIT     098H.5
  00B9                72     PT0     BIT     0B8H.1
  00A7                73     LED     BIT     0A0H.7
  00BB                74     PT1     BIT     0B8H.3
  00D3                75     RS0     BIT     0D0H.3
  008C                76     TR0     BIT     088H.4
  00D4                77     RS1     BIT     0D0H.4
  008E                78     TR1     BIT     088H.6
  00B8                79     PX0     BIT     0B8H.0
  00BA                80     PX1     BIT     0B8H.2
  0083                81     DPH     DATA    083H
  0082                82     DPL     DATA    082H
  009C                83     REN     BIT     098H.4
  00B0                84     RXD     BIT     0B0H.0
  00B1                85     TXD     BIT     0B0H.1
  00D5                86     F0      BIT     0D0H.5
  00D0                87     PSW     DATA    0D0H
                      88     ?PR?_dely_ms?MAIN    SEGMENT CODE 
                      89     ?PR?_select_side?MAIN                    SEGMENT CODE 
                      90     ?PR?wait_busy?MAIN   SEGMENT CODE 
                      91     ?PR?_write_ord?MAIN  SEGMENT CODE 
                      92     ?PR?_write_data?MAIN SEGMENT CODE 
                      93     ?PR?led_init?MAIN    SEGMENT CODE 
                      94     ?PR?_cls_disy?MAIN   SEGMENT CODE 
                      95     ?PR?_cls_disy_dely?MAIN                  SEGMENT CODE 
                      96     ?PR?_set_loc?MAIN    SEGMENT CODE 
                      97     ?PR?_show_font_8?MAIN                    SEGMENT CODE 
                      98     ?DT?_show_font_8?MAIN                    SEGMENT DATA OVERLAYABLE 
                      99     ?PR?_show_font_8f?MAIN                   SEGMENT CODE 
                     100     ?DT?_show_font_8f?MAIN                   SEGMENT DATA OVERLAYABLE 
                     101     ?PR?_show_font_16?MAIN                   SEGMENT CODE 
                     102     ?DT?_show_font_16?MAIN                   SEGMENT DATA OVERLAYABLE 
                     103     ?PR?_BCD_Decimal?MAIN                    SEGMENT CODE 
                     104     ?PR?_Dec_BCD?MAIN    SEGMENT CODE 
                     105     ?PR?_write_1302_byte?MAIN                SEGMENT CODE 
                     106     ?PR?read_1302_byte?MAIN                  SEGMENT CODE 
                     107     ?PR?_write_1302?MAIN SEGMENT CODE 
                     108     ?PR?_read_1302?MAIN  SEGMENT CODE 
                     109     ?PR?_read_time?MAIN  SEGMENT CODE 
                     110     ?DT?_read_time?MAIN  SEGMENT DATA OVERLAYABLE 
                     111     ?PR?_write_time?MAIN SEGMENT CODE 
                     112     ?DT?_write_time?MAIN SEGMENT DATA OVERLAYABLE 
                     113     ?PR?_DS18_delay?MAIN SEGMENT CODE 
                     114     ?PR?ow_reset?MAIN    SEGMENT CODE 
                     115     ?PR?_write_bit?MAIN  SEGMENT CODE 
                     116     ?PR?_ds18write_byte?MAIN                 SEGMENT CODE 
                     117     ?PR?read_bit?MAIN    SEGMENT CODE 
                     118     ?PR?DSread_byte?MAIN SEGMENT CODE 
                     119     ?PR?ReadTemperature?MAIN                 SEGMENT CODE 
                     120     ?DT?ReadTemperature?MAIN                 SEGMENT DATA OVERLAYABLE 
                     121     ?PR?show_first_word?MAIN                 SEGMENT CODE 
                     122     ?PR?show_time?MAIN   SEGMENT CODE 
                     123     ?DT?show_time?MAIN   SEGMENT DATA OVERLAYABLE 
A51 MACRO ASSEMBLER  MAIN                                                                 12/19/2019 15:45:25 PAGE     3

                     124     ?PR?show_del?MAIN    SEGMENT CODE 
                     125     ?DT?show_del?MAIN    SEGMENT DATA OVERLAYABLE 
                     126     ?PR?drmatic_display?MAIN                 SEGMENT CODE 
                     127     ?PR?on_time?MAIN     SEGMENT CODE 
                     128     ?PR?show_temper?MAIN SEGMENT CODE 
                     129     ?DT?show_temper?MAIN SEGMENT DATA OVERLAYABLE 
                     130     ?PR?_set_view?MAIN   SEGMENT CODE 
                     131     ?DT?_set_view?MAIN   SEGMENT DATA OVERLAYABLE 
                     132     ?PR?key_scan?MAIN    SEGMENT CODE 
                     133     ?PR?main?MAIN        SEGMENT CODE 
                     134     ?DT?main?MAIN        SEGMENT DATA OVERLAYABLE 
                     135     ?PR?int0_fun?MAIN    SEGMENT CODE 
                     136     ?C_INITSEG           SEGMENT CODE 
                     137     ?CO?MAIN             SEGMENT CODE 
                     138     ?DT?MAIN             SEGMENT DATA 
                     139             EXTRN   CODE (?C?CLDOPTR)
                     140             EXTRN   CODE (?C?CSTPTR)
                     141             EXTRN   CODE (?C?CLDPTR)
                     142             EXTRN   CODE (?C?IMUL)
                     143             EXTRN   CODE (?C?UIDIV)
                     144             EXTRN   CODE (?C_STARTUP)
                     145             PUBLIC  XY_POI
                     146             PUBLIC  POI
                     147             PUBLIC  LOC
                     148             PUBLIC  last_val
                     149             PUBLIC  SWITCH
                     150             PUBLIC  res
                     151             PUBLIC  Y_POI
                     152             PUBLIC  X_POI
                     153             PUBLIC  cla_
                     154             PUBLIC  MAX_LOC
                     155             PUBLIC  YLOC
                     156             PUBLIC  XLOC
                     157             PUBLIC  HZ_Num
                     158             PUBLIC  RiZi
                     159             PUBLIC  Sing
                     160             PUBLIC  HanZi_16
                     161             PUBLIC  NUM
                     162             PUBLIC  int0_fun
                     163             PUBLIC  main
                     164             PUBLIC  key_scan
                     165             PUBLIC  _set_view
                     166             PUBLIC  show_temper
                     167             PUBLIC  on_time
                     168             PUBLIC  drmatic_display
                     169             PUBLIC  show_del
                     170             PUBLIC  show_time
                     171             PUBLIC  show_first_word
                     172             PUBLIC  ReadTemperature
                     173             PUBLIC  DSread_byte
                     174             PUBLIC  read_bit
                     175             PUBLIC  _ds18write_byte
                     176             PUBLIC  _write_bit
                     177             PUBLIC  ow_reset
                     178             PUBLIC  _DS18_delay
                     179             PUBLIC  _write_time
                     180             PUBLIC  _read_time
                     181             PUBLIC  _read_1302
                     182             PUBLIC  _write_1302
                     183             PUBLIC  read_1302_byte
                     184             PUBLIC  _write_1302_byte
                     185             PUBLIC  _Dec_BCD
                     186             PUBLIC  _BCD_Decimal
                     187             PUBLIC  ?_show_font_16?BYTE
                     188             PUBLIC  _show_font_16
                     189             PUBLIC  ?_show_font_8f?BYTE
A51 MACRO ASSEMBLER  MAIN                                                                 12/19/2019 15:45:25 PAGE     4

                     190             PUBLIC  _show_font_8f
                     191             PUBLIC  ?_show_font_8?BYTE
                     192             PUBLIC  _show_font_8
                     193             PUBLIC  _set_loc
                     194             PUBLIC  _cls_disy_dely
                     195             PUBLIC  _cls_disy
                     196             PUBLIC  led_init
                     197             PUBLIC  _write_data
                     198             PUBLIC  _write_ord
                     199             PUBLIC  wait_busy
                     200             PUBLIC  _select_side
                     201             PUBLIC  _dely_ms
                     202     
----                 203             RSEG  ?DT?ReadTemperature?MAIN
0000                 204     ?ReadTemperature?BYTE:
0000                 205            get?2695:   DS   10
                     206     
----                 207             RSEG  ?DT?_show_font_16?MAIN
0000                 208     ?_show_font_16?BYTE:
0000                 209           side?1165:   DS   1
0001                 210             ORG  1
0001                 211              x?1166:   DS   1
0002                 212             ORG  2
0002                 213              y?1167:   DS   1
0003                 214             ORG  3
0003                 215            arr?1168:   DS   3
                     216     
----                 217             RSEG  ?DT?main?MAIN
0000                 218     ?main?BYTE:
0000                 219             x?35107:   DS   1
0001                 220             ORG  1
0001                 221             y?35108:   DS   1
0002                 222             ORG  2
0002                 223             z?35109:   DS   1
0003                 224             ORG  3
0003                 225          flag?35110:   DS   1
0004                 226             ORG  4
0004                 227      buf_time?35111:   DS   3
                     228     
----                 229             RSEG  ?DT?_read_time?MAIN
0000                 230     ?_read_time?BYTE:
0000                 231              p?1881:   DS   3
                     232     
----                 233             RSEG  ?DT?show_temper?MAIN
0000                 234     ?show_temper?BYTE:
0000                 235            te?32104:   DS   2
                     236     
----                 237             RSEG  ?DT?_write_time?MAIN
0000                 238     ?_write_time?BYTE:
0000                 239              p?1983:   DS   3
                     240     
----                 241             RSEG  ?DT?show_time?MAIN
0000                 242     ?show_time?BYTE:
0000                 243           buf?28100:   DS   1
                     244     
----                 245             RSEG  ?DT?show_del?MAIN
0000                 246     ?show_del?BYTE:
0000                 247           buf?29101:   DS   1
                     248     
----                 249             RSEG  ?DT?_show_font_8f?MAIN
0000                 250     ?_show_font_8f?BYTE:
0000                 251           side?1059:   DS   1
0001                 252             ORG  1
0001                 253              x?1060:   DS   1
0002                 254             ORG  2
0002                 255              y?1061:   DS   1
A51 MACRO ASSEMBLER  MAIN                                                                 12/19/2019 15:45:25 PAGE     5

0003                 256             ORG  3
0003                 257            arr?1062:   DS   3
0006                 258             ORG  6
0006                 259            isf?1063:   DS   1
                     260     
----                 261             RSEG  ?DT?_set_view?MAIN
0000                 262     ?_set_view?BYTE:
0000                 263           buf?33106:   DS   1
                     264     
----                 265             RSEG  ?DT?_show_font_8?MAIN
0000                 266     ?_show_font_8?BYTE:
0000                 267            side?954:   DS   1
0001                 268             ORG  1
0001                 269               x?955:   DS   1
0002                 270             ORG  2
0002                 271               y?956:   DS   1
0003                 272             ORG  3
0003                 273             arr?957:   DS   3
                     274     
----                 275             RSEG  ?DT?MAIN
0000                 276                cla_:   DS   9
0009                 277               X_POI:   DS   1
000A                 278               Y_POI:   DS   1
000B                 279                 res:   DS   7
0012                 280              SWITCH:   DS   1
0013                 281            last_val:   DS   2
0015                 282                 LOC:   DS   6
001B                 283                 POI:   DS   1
001C                 284              XY_POI:   DS   1
                     285     
----                 286             RSEG  ?CO?MAIN
0000                 287     NUM:
0000 FF              288             DB      0FFH
0001 1F              289             DB      01FH
0002 EF              290             DB      0EFH
0003 F7              291             DB      0F7H
0004 F7              292             DB      0F7H
0005 EF              293             DB      0EFH
0006 1F              294             DB      01FH
0007 FF              295             DB      0FFH
0008 FF              296             DB      0FFH
0009 F0              297             DB      0F0H
000A EF              298             DB      0EFH
000B DF              299             DB      0DFH
000C DF              300             DB      0DFH
000D EF              301             DB      0EFH
000E F0              302             DB      0F0H
000F FF              303             DB      0FFH
0010 FF              304             DB      0FFH
0011 FF              305             DB      0FFH
0012 EF              306             DB      0EFH
0013 EF              307             DB      0EFH
0014 07              308             DB      007H
0015 FF              309             DB      0FFH
0016 FF              310             DB      0FFH
0017 FF              311             DB      0FFH
0018 FF              312             DB      0FFH
0019 FF              313             DB      0FFH
001A DF              314             DB      0DFH
001B DF              315             DB      0DFH
001C C0              316             DB      0C0H
001D DF              317             DB      0DFH
001E DF              318             DB      0DFH
001F FF              319             DB      0FFH
0020 FF              320             DB      0FFH
0021 8F              321             DB      08FH
A51 MACRO ASSEMBLER  MAIN                                                                 12/19/2019 15:45:25 PAGE     6

0022 F7              322             DB      0F7H
0023 F7              323             DB      0F7H
0024 F7              324             DB      0F7H
0025 F7              325             DB      0F7H
0026 0F              326             DB      00FH
0027 FF              327             DB      0FFH
0028 FF              328             DB      0FFH
0029 CF              329             DB      0CFH
002A D7              330             DB      0D7H
002B DB              331             DB      0DBH
002C DD              332             DB      0DDH
002D DE              333             DB      0DEH
002E CF              334             DB      0CFH
002F FF              335             DB      0FFH
0030 FF              336             DB      0FFH
0031 CF              337             DB      0CFH
0032 F7              338             DB      0F7H
0033 F7              339             DB      0F7H
0034 F7              340             DB      0F7H
0035 77              341             DB      077H
0036 8F              342             DB      08FH
0037 FF              343             DB      0FFH
0038 FF              344             DB      0FFH
0039 E7              345             DB      0E7H
003A DF              346             DB      0DFH
003B DE              347             DB      0DEH
003C DE              348             DB      0DEH
003D DD              349             DB      0DDH
003E E3              350             DB      0E3H
003F FF              351             DB      0FFH
0040 FF              352             DB      0FFH
0041 FF              353             DB      0FFH
0042 7F              354             DB      07FH
0043 BF              355             DB      0BFH
0044 CF              356             DB      0CFH
0045 07              357             DB      007H
0046 FF              358             DB      0FFH
0047 FF              359             DB      0FFH
0048 FF              360             DB      0FFH
0049 F9              361             DB      0F9H
004A FA              362             DB      0FAH
004B DB              363             DB      0DBH
004C DB              364             DB      0DBH
004D C0              365             DB      0C0H
004E DB              366             DB      0DBH
004F DB              367             DB      0DBH
0050 FF              368             DB      0FFH
0051 07              369             DB      007H
0052 77              370             DB      077H
0053 77              371             DB      077H
0054 77              372             DB      077H
0055 F7              373             DB      0F7H
0056 F7              374             DB      0F7H
0057 FF              375             DB      0FFH
0058 FF              376             DB      0FFH
0059 E6              377             DB      0E6H
005A DF              378             DB      0DFH
005B DF              379             DB      0DFH
005C DF              380             DB      0DFH
005D EE              381             DB      0EEH
005E F1              382             DB      0F1H
005F FF              383             DB      0FFH
0060 FF              384             DB      0FFH
0061 1F              385             DB      01FH
0062 EF              386             DB      0EFH
0063 77              387             DB      077H
A51 MACRO ASSEMBLER  MAIN                                                                 12/19/2019 15:45:25 PAGE     7

0064 77              388             DB      077H
0065 6F              389             DB      06FH
0066 FF              390             DB      0FFH
0067 FF              391             DB      0FFH
0068 FF              392             DB      0FFH
0069 F0              393             DB      0F0H
006A EE              394             DB      0EEH
006B DF              395             DB      0DFH
006C DF              396             DB      0DFH
006D DF              397             DB      0DFH
006E E0              398             DB      0E0H
006F FF              399             DB      0FFH
0070 FF              400             DB      0FFH
0071 E7              401             DB      0E7H
0072 F7              402             DB      0F7H
0073 F7              403             DB      0F7H
0074 77              404             DB      077H
0075 97              405             DB      097H
0076 E7              406             DB      0E7H
0077 FF              407             DB      0FFH
0078 FF              408             DB      0FFH
0079 FF              409             DB      0FFH
007A FF              410             DB      0FFH
007B C1              411             DB      0C1H
007C FE              412             DB      0FEH
007D FF              413             DB      0FFH
007E FF              414             DB      0FFH
007F FF              415             DB      0FFH
0080 FF              416             DB      0FFH
0081 8F              417             DB      08FH
0082 77              418             DB      077H
0083 F7              419             DB      0F7H
0084 F7              420             DB      0F7H
0085 77              421             DB      077H
0086 8F              422             DB      08FH
0087 FF              423             DB      0FFH
0088 FF              424             DB      0FFH
0089 E3              425             DB      0E3H
008A DD              426             DB      0DDH
008B DE              427             DB      0DEH
008C DE              428             DB      0DEH
008D DD              429             DB      0DDH
008E E3              430             DB      0E3H
008F FF              431             DB      0FFH
0090 FF              432             DB      0FFH
0091 0F              433             DB      00FH
0092 F7              434             DB      0F7H
0093 F7              435             DB      0F7H
0094 F7              436             DB      0F7H
0095 EF              437             DB      0EFH
0096 1F              438             DB      01FH
0097 FF              439             DB      0FFH
0098 FF              440             DB      0FFH
0099 FE              441             DB      0FEH
009A ED              442             DB      0EDH
009B DD              443             DB      0DDH
009C DD              444             DB      0DDH
009D EE              445             DB      0EEH
009E F0              446             DB      0F0H
009F FF              447             DB      0FFH
                     448     
00A0                 449     HanZi_16:
00A0 FF              450             DB      0FFH
00A1 EF              451             DB      0EFH
00A2 6B              452             DB      06BH
00A3 AC              453             DB      0ACH
A51 MACRO ASSEMBLER  MAIN                                                                 12/19/2019 15:45:25 PAGE     8

00A4 CD              454             DB      0CDH
00A5 E1              455             DB      0E1H
00A6 CD              456             DB      0CDH
00A7 AD              457             DB      0ADH
00A8 EF              458             DB      0EFH
00A9 FF              459             DB      0FFH
00AA 81              460             DB      081H
00AB BD              461             DB      0BDH
00AC BD              462             DB      0BDH
00AD BD              463             DB      0BDH
00AE 81              464             DB      081H
00AF FF              465             DB      0FFH
00B0 FF              466             DB      0FFH
00B1 FF              467             DB      0FFH
00B2 FF              468             DB      0FFH
00B3 FF              469             DB      0FFH
00B4 00              470             DB      000H
00B5 B6              471             DB      0B6H
00B6 B6              472             DB      0B6H
00B7 B6              473             DB      0B6H
00B8 B6              474             DB      0B6H
00B9 B6              475             DB      0B6H
00BA B6              476             DB      0B6H
00BB B6              477             DB      0B6H
00BC 00              478             DB      000H
00BD FF              479             DB      0FFH
00BE FF              480             DB      0FFH
00BF FF              481             DB      0FFH
00C0 FF              482             DB      0FFH
00C1 F7              483             DB      0F7H
00C2 33              484             DB      033H
00C3 B5              485             DB      0B5H
00C4 B6              486             DB      0B6H
00C5 B7              487             DB      0B7H
00C6 B5              488             DB      0B5H
00C7 33              489             DB      033H
00C8 E7              490             DB      0E7H
00C9 FF              491             DB      0FFH
00CA 80              492             DB      080H
00CB 77              493             DB      077H
00CC 77              494             DB      077H
00CD 7B              495             DB      07BH
00CE 7D              496             DB      07DH
00CF 1F              497             DB      01FH
00D0 FF              498             DB      0FFH
00D1 FF              499             DB      0FFH
00D2 00              500             DB      000H
00D3 ED              501             DB      0EDH
00D4 ED              502             DB      0EDH
00D5 AD              503             DB      0ADH
00D6 6D              504             DB      06DH
00D7 80              505             DB      080H
00D8 FF              506             DB      0FFH
00D9 FF              507             DB      0FFH
00DA 81              508             DB      081H
00DB 77              509             DB      077H
00DC 77              510             DB      077H
00DD 7B              511             DB      07BH
00DE 7D              512             DB      07DH
00DF 1F              513             DB      01FH
00E0 FF              514             DB      0FFH
00E1 FF              515             DB      0FFH
00E2 FF              516             DB      0FFH
00E3 DB              517             DB      0DBH
00E4 DB              518             DB      0DBH
00E5 DB              519             DB      0DBH
A51 MACRO ASSEMBLER  MAIN                                                                 12/19/2019 15:45:25 PAGE     9

00E6 DB              520             DB      0DBH
00E7 DB              521             DB      0DBH
00E8 03              522             DB      003H
00E9 DD              523             DB      0DDH
00EA DD              524             DB      0DDH
00EB DD              525             DB      0DDH
00EC DC              526             DB      0DCH
00ED DD              527             DB      0DDH
00EE FF              528             DB      0FFH
00EF FF              529             DB      0FFH
00F0 FF              530             DB      0FFH
00F1 FD              531             DB      0FDH
00F2 FD              532             DB      0FDH
00F3 FD              533             DB      0FDH
00F4 FD              534             DB      0FDH
00F5 FD              535             DB      0FDH
00F6 BD              536             DB      0BDH
00F7 7D              537             DB      07DH
00F8 80              538             DB      080H
00F9 FD              539             DB      0FDH
00FA FD              540             DB      0FDH
00FB FD              541             DB      0FDH
00FC FD              542             DB      0FDH
00FD FD              543             DB      0FDH
00FE FD              544             DB      0FDH
00FF FD              545             DB      0FDH
0100 FF              546             DB      0FFH
0101 FF              547             DB      0FFH
0102 FB              548             DB      0FBH
0103 DB              549             DB      0DBH
0104 DB              550             DB      0DBH
0105 DB              551             DB      0DBH
0106 DB              552             DB      0DBH
0107 DB              553             DB      0DBH
0108 00              554             DB      000H
0109 DB              555             DB      0DBH
010A DB              556             DB      0DBH
010B DB              557             DB      0DBH
010C DB              558             DB      0DBH
010D DB              559             DB      0DBH
010E FB              560             DB      0FBH
010F FF              561             DB      0FFH
0110 FF              562             DB      0FFH
0111 DE              563             DB      0DEH
0112 DE              564             DB      0DEH
0113 EE              565             DB      0EEH
0114 F6              566             DB      0F6H
0115 02              567             DB      002H
0116 7C              568             DB      07CH
0117 BE              569             DB      0BEH
0118 DC              570             DB      0DCH
0119 FA              571             DB      0FAH
011A F6              572             DB      0F6H
011B EE              573             DB      0EEH
011C D6              574             DB      0D6H
011D DA              575             DB      0DAH
011E BE              576             DB      0BEH
011F BE              577             DB      0BEH
0120 FF              578             DB      0FFH
0121 FF              579             DB      0FFH
0122 FF              580             DB      0FFH
0123 FF              581             DB      0FFH
0124 41              582             DB      041H
0125 D5              583             DB      0D5H
0126 D5              584             DB      0D5H
0127 D5              585             DB      0D5H
A51 MACRO ASSEMBLER  MAIN                                                                 12/19/2019 15:45:25 PAGE    10

0128 15              586             DB      015H
0129 D5              587             DB      0D5H
012A D5              588             DB      0D5H
012B D5              589             DB      0D5H
012C C1              590             DB      0C1H
012D FF              591             DB      0FFH
012E FF              592             DB      0FFH
012F FF              593             DB      0FFH
0130 FF              594             DB      0FFH
0131 FF              595             DB      0FFH
0132 BB              596             DB      0BBH
0133 BD              597             DB      0BDH
0134 B6              598             DB      0B6H
0135 B6              599             DB      0B6H
0136 B6              600             DB      0B6H
0137 B6              601             DB      0B6H
0138 80              602             DB      080H
0139 B6              603             DB      0B6H
013A B6              604             DB      0B6H
013B B6              605             DB      0B6H
013C B6              606             DB      0B6H
013D BE              607             DB      0BEH
013E BF              608             DB      0BFH
013F FF              609             DB      0FFH
0140 FF              610             DB      0FFH
0141 FF              611             DB      0FFH
0142 FB              612             DB      0FBH
0143 00              613             DB      000H
0144 DB              614             DB      0DBH
0145 DB              615             DB      0DBH
0146 DB              616             DB      0DBH
0147 00              617             DB      000H
0148 FB              618             DB      0FBH
0149 FF              619             DB      0FFH
014A 01              620             DB      001H
014B DD              621             DB      0DDH
014C DD              622             DB      0DDH
014D DD              623             DB      0DDH
014E 01              624             DB      001H
014F FF              625             DB      0FFH
0150 FF              626             DB      0FFH
0151 77              627             DB      077H
0152 B7              628             DB      0B7H
0153 D0              629             DB      0D0H
0154 F6              630             DB      0F6H
0155 F6              631             DB      0F6H
0156 E6              632             DB      0E6H
0157 50              633             DB      050H
0158 B7              634             DB      0B7H
0159 CF              635             DB      0CFH
015A F0              636             DB      0F0H
015B FD              637             DB      0FDH
015C BD              638             DB      0BDH
015D 7D              639             DB      07DH
015E 80              640             DB      080H
015F FF              641             DB      0FFH
0160 FF              642             DB      0FFH
0161 EF              643             DB      0EFH
0162 9F              644             DB      09FH
0163 FD              645             DB      0FDH
0164 73              646             DB      073H
0165 FF              647             DB      0FFH
0166 FF              648             DB      0FFH
0167 01              649             DB      001H
0168 6D              650             DB      06DH
0169 6D              651             DB      06DH
A51 MACRO ASSEMBLER  MAIN                                                                 12/19/2019 15:45:25 PAGE    11

016A 6D              652             DB      06DH
016B 6D              653             DB      06DH
016C 6D              654             DB      06DH
016D 01              655             DB      001H
016E FF              656             DB      0FFH
016F FF              657             DB      0FFH
0170 FF              658             DB      0FFH
0171 FB              659             DB      0FBH
0172 FB              660             DB      0FBH
0173 81              661             DB      081H
0174 FE              662             DB      0FEH
0175 BF              663             DB      0BFH
0176 81              664             DB      081H
0177 BD              665             DB      0BDH
0178 BD              666             DB      0BDH
0179 81              667             DB      081H
017A BD              668             DB      0BDH
017B 81              669             DB      081H
017C BD              670             DB      0BDH
017D BD              671             DB      0BDH
017E 81              672             DB      081H
017F BF              673             DB      0BFH
0180 FF              674             DB      0FFH
0181 FF              675             DB      0FFH
0182 FF              676             DB      0FFH
0183 03              677             DB      003H
0184 DB              678             DB      0DBH
0185 DB              679             DB      0DBH
0186 DB              680             DB      0DBH
0187 03              681             DB      003H
0188 DA              682             DB      0DAH
0189 D9              683             DB      0D9H
018A DB              684             DB      0DBH
018B 03              685             DB      003H
018C DB              686             DB      0DBH
018D DB              687             DB      0DBH
018E DB              688             DB      0DBH
018F FB              689             DB      0FBH
0190 FF              690             DB      0FFH
0191 BF              691             DB      0BFH
0192 CF              692             DB      0CFH
0193 70              693             DB      070H
0194 7F              694             DB      07FH
0195 7B              695             DB      07BH
0196 B3              696             DB      0B3H
0197 AA              697             DB      0AAH
0198 DA              698             DB      0DAH
0199 DA              699             DB      0DAH
019A DA              700             DB      0DAH
019B AA              701             DB      0AAH
019C B3              702             DB      0B3H
019D 7F              703             DB      07FH
019E 7F              704             DB      07FH
019F 7F              705             DB      07FH
01A0 FF              706             DB      0FFH
01A1 FF              707             DB      0FFH
01A2 FF              708             DB      0FFH
01A3 FF              709             DB      0FFH
01A4 FF              710             DB      0FFH
01A5 FF              711             DB      0FFH
01A6 FF              712             DB      0FFH
01A7 FF              713             DB      0FFH
01A8 FF              714             DB      0FFH
01A9 FF              715             DB      0FFH
01AA FF              716             DB      0FFH
01AB FF              717             DB      0FFH
A51 MACRO ASSEMBLER  MAIN                                                                 12/19/2019 15:45:25 PAGE    12

01AC FF              718             DB      0FFH
01AD FF              719             DB      0FFH
01AE FF              720             DB      0FFH
01AF FF              721             DB      0FFH
01B0 FF              722             DB      0FFH
01B1 FF              723             DB      0FFH
01B2 FF              724             DB      0FFH
01B3 C9              725             DB      0C9H
01B4 C9              726             DB      0C9H
01B5 FF              727             DB      0FFH
01B6 FF              728             DB      0FFH
01B7 FF              729             DB      0FFH
01B8 FF              730             DB      0FFH
01B9 FF              731             DB      0FFH
01BA FF              732             DB      0FFH
01BB FF              733             DB      0FFH
01BC FF              734             DB      0FFH
01BD FF              735             DB      0FFH
01BE FF              736             DB      0FFH
01BF FF              737             DB      0FFH
01C0 FF              738             DB      0FFH
01C1 F9              739             DB      0F9H
01C2 F6              740             DB      0F6H
01C3 F6              741             DB      0F6H
01C4 19              742             DB      019H
01C5 07              743             DB      007H
01C6 F3              744             DB      0F3H
01C7 FB              745             DB      0FBH
01C8 FD              746             DB      0FDH
01C9 FD              747             DB      0FDH
01CA FD              748             DB      0FDH
01CB FD              749             DB      0FDH
01CC FD              750             DB      0FDH
01CD FB              751             DB      0FBH
01CE E1              752             DB      0E1H
01CF FF              753             DB      0FFH
01D0 FF              754             DB      0FFH
01D1 FF              755             DB      0FFH
01D2 FF              756             DB      0FFH
01D3 FF              757             DB      0FFH
01D4 F8              758             DB      0F8H
01D5 E0              759             DB      0E0H
01D6 CF              760             DB      0CFH
01D7 DF              761             DB      0DFH
01D8 BF              762             DB      0BFH
01D9 BF              763             DB      0BFH
01DA BF              764             DB      0BFH
01DB BF              765             DB      0BFH
01DC BF              766             DB      0BFH
01DD DF              767             DB      0DFH
01DE EF              768             DB      0EFH
01DF FF              769             DB      0FFH
01E0 FF              770             DB      0FFH
01E1 FF              771             DB      0FFH
01E2 FF              772             DB      0FFH
01E3 FF              773             DB      0FFH
01E4 FF              774             DB      0FFH
01E5 FF              775             DB      0FFH
01E6 FF              776             DB      0FFH
01E7 FF              777             DB      0FFH
01E8 00              778             DB      000H
01E9 FF              779             DB      0FFH
01EA FF              780             DB      0FFH
01EB FF              781             DB      0FFH
01EC FF              782             DB      0FFH
01ED FF              783             DB      0FFH
A51 MACRO ASSEMBLER  MAIN                                                                 12/19/2019 15:45:25 PAGE    13

01EE FF              784             DB      0FFH
01EF FF              785             DB      0FFH
01F0 FF              786             DB      0FFH
01F1 FF              787             DB      0FFH
01F2 FF              788             DB      0FFH
01F3 FF              789             DB      0FFH
01F4 FF              790             DB      0FFH
01F5 FD              791             DB      0FDH
01F6 F3              792             DB      0F3H
01F7 C7              793             DB      0C7H
01F8 00              794             DB      000H
01F9 C7              795             DB      0C7H
01FA F3              796             DB      0F3H
01FB FD              797             DB      0FDH
01FC FF              798             DB      0FFH
01FD FF              799             DB      0FFH
01FE FF              800             DB      0FFH
01FF FF              801             DB      0FFH
                     802     
0200                 803     Sing:
0200 FF              804             DB      0FFH
0201 FF              805             DB      0FFH
0202 FF              806             DB      0FFH
0203 7F              807             DB      07FH
0204 7F              808             DB      07FH
0205 FF              809             DB      0FFH
0206 FF              810             DB      0FFH
0207 FF              811             DB      0FFH
0208 FF              812             DB      0FFH
0209 FF              813             DB      0FFH
020A FF              814             DB      0FFH
020B 9E              815             DB      09EH
020C 9E              816             DB      09EH
020D FF              817             DB      0FFH
020E FF              818             DB      0FFH
020F FF              819             DB      0FFH
0210 FF              820             DB      0FFH
0211 FF              821             DB      0FFH
0212 FF              822             DB      0FFH
0213 FF              823             DB      0FFH
0214 FF              824             DB      0FFH
0215 FF              825             DB      0FFH
0216 FF              826             DB      0FFH
0217 FF              827             DB      0FFH
0218 FF              828             DB      0FFH
0219 FE              829             DB      0FEH
021A FE              830             DB      0FEH
021B FE              831             DB      0FEH
021C FE              832             DB      0FEH
021D FE              833             DB      0FEH
021E FE              834             DB      0FEH
021F FE              835             DB      0FEH
0220 FF              836             DB      0FFH
0221 7F              837             DB      07FH
0222 9F              838             DB      09FH
0223 EF              839             DB      0EFH
0224 EF              840             DB      0EFH
0225 EF              841             DB      0EFH
0226 EF              842             DB      0EFH
0227 8F              843             DB      08FH
0228 FF              844             DB      0FFH
0229 E0              845             DB      0E0H
022A DF              846             DB      0DFH
022B BF              847             DB      0BFH
022C BF              848             DB      0BFH
022D BF              849             DB      0BFH
A51 MACRO ASSEMBLER  MAIN                                                                 12/19/2019 15:45:25 PAGE    14

022E DF              850             DB      0DFH
022F EF              851             DB      0EFH
0230 FF              852             DB      0FFH
0231 C7              853             DB      0C7H
0232 BB              854             DB      0BBH
0233 7D              855             DB      07DH
0234 7D              856             DB      07DH
0235 7D              857             DB      07DH
0236 7D              858             DB      07DH
0237 BB              859             DB      0BBH
0238 FF              860             DB      0FFH
0239 FF              861             DB      0FFH
023A FF              862             DB      0FFH
023B FF              863             DB      0FFH
023C FF              864             DB      0FFH
023D FF              865             DB      0FFH
023E FF              866             DB      0FFH
023F FF              867             DB      0FFH
                     868     
0240                 869     RiZi:
0240 FF              870             DB      0FFH
0241 FF              871             DB      0FFH
0242 DF              872             DB      0DFH
0243 E7              873             DB      0E7H
0244 38              874             DB      038H
0245 BB              875             DB      0BBH
0246 BB              876             DB      0BBH
0247 BB              877             DB      0BBH
0248 BB              878             DB      0BBH
0249 03              879             DB      003H
024A BB              880             DB      0BBH
024B BB              881             DB      0BBH
024C BB              882             DB      0BBH
024D BB              883             DB      0BBH
024E FB              884             DB      0FBH
024F FF              885             DB      0FFH
0250 FF              886             DB      0FFH
0251 FB              887             DB      0FBH
0252 FB              888             DB      0FBH
0253 FB              889             DB      0FBH
0254 F8              890             DB      0F8H
0255 FB              891             DB      0FBH
0256 FB              892             DB      0FBH
0257 FB              893             DB      0FBH
0258 FB              894             DB      0FBH
0259 00              895             DB      000H
025A FB              896             DB      0FBH
025B FB              897             DB      0FBH
025C FB              898             DB      0FBH
025D FB              899             DB      0FBH
025E FB              900             DB      0FBH
025F FB              901             DB      0FBH
0260 FF              902             DB      0FFH
0261 FF              903             DB      0FFH
0262 FF              904             DB      0FFH
0263 FF              905             DB      0FFH
0264 01              906             DB      001H
0265 DD              907             DB      0DDH
0266 DD              908             DB      0DDH
0267 DD              909             DB      0DDH
0268 DD              910             DB      0DDH
0269 DD              911             DB      0DDH
026A DD              912             DB      0DDH
026B DD              913             DB      0DDH
026C DD              914             DB      0DDH
026D 01              915             DB      001H
A51 MACRO ASSEMBLER  MAIN                                                                 12/19/2019 15:45:25 PAGE    15

026E FF              916             DB      0FFH
026F FF              917             DB      0FFH
0270 FF              918             DB      0FFH
0271 7F              919             DB      07FH
0272 BF              920             DB      0BFH
0273 CF              921             DB      0CFH
0274 F0              922             DB      0F0H
0275 FD              923             DB      0FDH
0276 FD              924             DB      0FDH
0277 FD              925             DB      0FDH
0278 FD              926             DB      0FDH
0279 FD              927             DB      0FDH
027A FD              928             DB      0FDH
027B BD              929             DB      0BDH
027C 7D              930             DB      07DH
027D 80              931             DB      080H
027E FF              932             DB      0FFH
027F FF              933             DB      0FFH
0280 FF              934             DB      0FFH
0281 FF              935             DB      0FFH
0282 FF              936             DB      0FFH
0283 FF              937             DB      0FFH
0284 01              938             DB      001H
0285 7D              939             DB      07DH
0286 7D              940             DB      07DH
0287 7D              941             DB      07DH
0288 7D              942             DB      07DH
0289 7D              943             DB      07DH
028A 7D              944             DB      07DH
028B 7D              945             DB      07DH
028C 01              946             DB      001H
028D FF              947             DB      0FFH
028E FF              948             DB      0FFH
028F FF              949             DB      0FFH
0290 FF              950             DB      0FFH
0291 FF              951             DB      0FFH
0292 FF              952             DB      0FFH
0293 FF              953             DB      0FFH
0294 00              954             DB      000H
0295 BF              955             DB      0BFH
0296 BF              956             DB      0BFH
0297 BF              957             DB      0BFH
0298 BF              958             DB      0BFH
0299 BF              959             DB      0BFH
029A BF              960             DB      0BFH
029B BF              961             DB      0BFH
029C 00              962             DB      000H
029D FF              963             DB      0FFH
029E FF              964             DB      0FFH
029F FF              965             DB      0FFH
02A0 FF              966             DB      0FFH
02A1 FF              967             DB      0FFH
02A2 03              968             DB      003H
02A3 7B              969             DB      07BH
02A4 7B              970             DB      07BH
02A5 7B              971             DB      07BH
02A6 03              972             DB      003H
02A7 FF              973             DB      0FFH
02A8 EF              974             DB      0EFH
02A9 EF              975             DB      0EFH
02AA EF              976             DB      0EFH
02AB EF              977             DB      0EFH
02AC EF              978             DB      0EFH
02AD 00              979             DB      000H
02AE EF              980             DB      0EFH
02AF EF              981             DB      0EFH
A51 MACRO ASSEMBLER  MAIN                                                                 12/19/2019 15:45:25 PAGE    16

02B0 FF              982             DB      0FFH
02B1 FF              983             DB      0FFH
02B2 C0              984             DB      0C0H
02B3 EF              985             DB      0EFH
02B4 EF              986             DB      0EFH
02B5 EF              987             DB      0EFH
02B6 C0              988             DB      0C0H
02B7 FF              989             DB      0FFH
02B8 FF              990             DB      0FFH
02B9 FE              991             DB      0FEH
02BA F9              992             DB      0F9H
02BB BF              993             DB      0BFH
02BC 7F              994             DB      07FH
02BD 80              995             DB      080H
02BE FF              996             DB      0FFH
02BF FF              997             DB      0FFH
02C0 FF              998             DB      0FFH
02C1 7F              999             DB      07FH
02C2 BF             1000             DB      0BFH
02C3 DF             1001             DB      0DFH
02C4 6F             1002             DB      06FH
02C5 77             1003             DB      077H
02C6 79             1004             DB      079H
02C7 7F             1005             DB      07FH
02C8 7F             1006             DB      07FH
02C9 7F             1007             DB      07FH
02CA 7C             1008             DB      07CH
02CB 73             1009             DB      073H
02CC EF             1010             DB      0EFH
02CD DF             1011             DB      0DFH
02CE BF             1012             DB      0BFH
02CF 7F             1013             DB      07FH
02D0 FF             1014             DB      0FFH
02D1 FF             1015             DB      0FFH
02D2 7F             1016             DB      07FH
02D3 BF             1017             DB      0BFH
02D4 DF             1018             DB      0DFH
02D5 E7             1019             DB      0E7H
02D6 F8             1020             DB      0F8H
02D7 FF             1021             DB      0FFH
02D8 BF             1022             DB      0BFH
02D9 7F             1023             DB      07FH
02DA BF             1024             DB      0BFH
02DB C0             1025             DB      0C0H
02DC FF             1026             DB      0FFH
02DD FF             1027             DB      0FFH
02DE FF             1028             DB      0FFH
02DF FF             1029             DB      0FFH
02E0 FF             1030             DB      0FFH
02E1 DB             1031             DB      0DBH
02E2 DB             1032             DB      0DBH
02E3 5B             1033             DB      05BH
02E4 01             1034             DB      001H
02E5 DC             1035             DB      0DCH
02E6 DD             1036             DB      0DDH
02E7 FF             1037             DB      0FFH
02E8 3F             1038             DB      03FH
02E9 C7             1039             DB      0C7H
02EA FF             1040             DB      0FFH
02EB 00             1041             DB      000H
02EC FF             1042             DB      0FFH
02ED F7             1043             DB      0F7H
02EE EF             1044             DB      0EFH
02EF 9F             1045             DB      09FH
02F0 FF             1046             DB      0FFH
02F1 F7             1047             DB      0F7H
A51 MACRO ASSEMBLER  MAIN                                                                 12/19/2019 15:45:25 PAGE    17

02F2 F9             1048             DB      0F9H
02F3 FE             1049             DB      0FEH
02F4 00             1050             DB      000H
02F5 FE             1051             DB      0FEH
02F6 F9             1052             DB      0F9H
02F7 7E             1053             DB      07EH
02F8 7F             1054             DB      07FH
02F9 BF             1055             DB      0BFH
02FA BF             1056             DB      0BFH
02FB D8             1057             DB      0D8H
02FC EF             1058             DB      0EFH
02FD F3             1059             DB      0F3H
02FE FC             1060             DB      0FCH
02FF FF             1061             DB      0FFH
                    1062     
0300                1063     HZ_Num:
0300 FF             1064             DB      0FFH
0301 7F             1065             DB      07FH
0302 7F             1066             DB      07FH
0303 7F             1067             DB      07FH
0304 7F             1068             DB      07FH
0305 7F             1069             DB      07FH
0306 7F             1070             DB      07FH
0307 7F             1071             DB      07FH
0308 7F             1072             DB      07FH
0309 7F             1073             DB      07FH
030A 7F             1074             DB      07FH
030B 7F             1075             DB      07FH
030C 7F             1076             DB      07FH
030D 7F             1077             DB      07FH
030E 7F             1078             DB      07FH
030F 7F             1079             DB      07FH
0310 FF             1080             DB      0FFH
0311 FF             1081             DB      0FFH
0312 FF             1082             DB      0FFH
0313 FF             1083             DB      0FFH
0314 FF             1084             DB      0FFH
0315 FF             1085             DB      0FFH
0316 FF             1086             DB      0FFH
0317 FF             1087             DB      0FFH
0318 FF             1088             DB      0FFH
0319 FF             1089             DB      0FFH
031A FF             1090             DB      0FFH
031B FF             1091             DB      0FFH
031C FF             1092             DB      0FFH
031D FF             1093             DB      0FFH
031E FF             1094             DB      0FFH
031F FF             1095             DB      0FFH
0320 FF             1096             DB      0FFH
0321 FF             1097             DB      0FFH
0322 FF             1098             DB      0FFH
0323 F7             1099             DB      0F7H
0324 F7             1100             DB      0F7H
0325 F7             1101             DB      0F7H
0326 F7             1102             DB      0F7H
0327 F7             1103             DB      0F7H
0328 F7             1104             DB      0F7H
0329 F7             1105             DB      0F7H
032A F7             1106             DB      0F7H
032B F7             1107             DB      0F7H
032C F7             1108             DB      0F7H
032D F7             1109             DB      0F7H
032E FF             1110             DB      0FFH
032F FF             1111             DB      0FFH
0330 FF             1112             DB      0FFH
0331 EF             1113             DB      0EFH
A51 MACRO ASSEMBLER  MAIN                                                                 12/19/2019 15:45:25 PAGE    18

0332 EF             1114             DB      0EFH
0333 EF             1115             DB      0EFH
0334 EF             1116             DB      0EFH
0335 EF             1117             DB      0EFH
0336 EF             1118             DB      0EFH
0337 EF             1119             DB      0EFH
0338 EF             1120             DB      0EFH
0339 EF             1121             DB      0EFH
033A EF             1122             DB      0EFH
033B EF             1123             DB      0EFH
033C EF             1124             DB      0EFH
033D EF             1125             DB      0EFH
033E EF             1126             DB      0EFH
033F EF             1127             DB      0EFH
0340 FF             1128             DB      0FFH
0341 FF             1129             DB      0FFH
0342 FB             1130             DB      0FBH
0343 7B             1131             DB      07BH
0344 7B             1132             DB      07BH
0345 7B             1133             DB      07BH
0346 7B             1134             DB      07BH
0347 7B             1135             DB      07BH
0348 7B             1136             DB      07BH
0349 7B             1137             DB      07BH
034A 7B             1138             DB      07BH
034B 7B             1139             DB      07BH
034C 7B             1140             DB      07BH
034D 7B             1141             DB      07BH
034E FB             1142             DB      0FBH
034F FF             1143             DB      0FFH
0350 FF             1144             DB      0FFH
0351 DF             1145             DB      0DFH
0352 DF             1146             DB      0DFH
0353 DF             1147             DB      0DFH
0354 DF             1148             DB      0DFH
0355 DF             1149             DB      0DFH
0356 DF             1150             DB      0DFH
0357 DF             1151             DB      0DFH
0358 DF             1152             DB      0DFH
0359 DF             1153             DB      0DFH
035A DF             1154             DB      0DFH
035B DF             1155             DB      0DFH
035C DF             1156             DB      0DFH
035D DF             1157             DB      0DFH
035E DF             1158             DB      0DFH
035F DF             1159             DB      0DFH
0360 FF             1160             DB      0FFH
0361 FF             1161             DB      0FFH
0362 03             1162             DB      003H
0363 FB             1163             DB      0FBH
0364 FB             1164             DB      0FBH
0365 FB             1165             DB      0FBH
0366 03             1166             DB      003H
0367 FB             1167             DB      0FBH
0368 FB             1168             DB      0FBH
0369 FB             1169             DB      0FBH
036A 03             1170             DB      003H
036B FB             1171             DB      0FBH
036C FB             1172             DB      0FBH
036D FB             1173             DB      0FBH
036E 03             1174             DB      003H
036F FF             1175             DB      0FFH
0370 FF             1176             DB      0FFH
0371 FF             1177             DB      0FFH
0372 80             1178             DB      080H
0373 D7             1179             DB      0D7H
A51 MACRO ASSEMBLER  MAIN                                                                 12/19/2019 15:45:25 PAGE    19

0374 DB             1180             DB      0DBH
0375 DC             1181             DB      0DCH
0376 DF             1182             DB      0DFH
0377 DF             1183             DB      0DFH
0378 DF             1184             DB      0DFH
0379 DF             1185             DB      0DFH
037A DE             1186             DB      0DEH
037B DD             1187             DB      0DDH
037C DD             1188             DB      0DDH
037D DD             1189             DB      0DDH
037E 80             1190             DB      080H
037F FF             1191             DB      0FFH
0380 FF             1192             DB      0FFH
0381 FF             1193             DB      0FFH
0382 FD             1194             DB      0FDH
0383 BD             1195             DB      0BDH
0384 BD             1196             DB      0BDH
0385 BD             1197             DB      0BDH
0386 3D             1198             DB      03DH
0387 81             1199             DB      081H
0388 BD             1200             DB      0BDH
0389 BD             1201             DB      0BDH
038A BD             1202             DB      0BDH
038B BD             1203             DB      0BDH
038C 3D             1204             DB      03DH
038D FD             1205             DB      0FDH
038E FD             1206             DB      0FDH
038F FF             1207             DB      0FFH
0390 FF             1208             DB      0FFH
0391 BF             1209             DB      0BFH
0392 BF             1210             DB      0BFH
0393 BF             1211             DB      0BFH
0394 BF             1212             DB      0BFH
0395 87             1213             DB      087H
0396 B8             1214             DB      0B8H
0397 BF             1215             DB      0BFH
0398 BF             1216             DB      0BFH
0399 BF             1217             DB      0BFH
039A BF             1218             DB      0BFH
039B BF             1219             DB      0BFH
039C 80             1220             DB      080H
039D BF             1221             DB      0BFH
039E BF             1222             DB      0BFH
039F BF             1223             DB      0BFH
03A0 FF             1224             DB      0FFH
03A1 DF             1225             DB      0DFH
03A2 DF             1226             DB      0DFH
03A3 DF             1227             DB      0DFH
03A4 DF             1228             DB      0DFH
03A5 DF             1229             DB      0DFH
03A6 DF             1230             DB      0DFH
03A7 DE             1231             DB      0DEH
03A8 DD             1232             DB      0DDH
03A9 D3             1233             DB      0D3H
03AA DF             1234             DB      0DFH
03AB DF             1235             DB      0DFH
03AC DF             1236             DB      0DFH
03AD DF             1237             DB      0DFH
03AE DF             1238             DB      0DFH
03AF DF             1239             DB      0DFH
03B0 FF             1240             DB      0FFH
03B1 FF             1241             DB      0FFH
03B2 BF             1242             DB      0BFH
03B3 DF             1243             DB      0DFH
03B4 EF             1244             DB      0EFH
03B5 F3             1245             DB      0F3H
A51 MACRO ASSEMBLER  MAIN                                                                 12/19/2019 15:45:25 PAGE    20

03B6 FC             1246             DB      0FCH
03B7 FF             1247             DB      0FFH
03B8 FF             1248             DB      0FFH
03B9 FF             1249             DB      0FFH
03BA FE             1250             DB      0FEH
03BB FD             1251             DB      0FDH
03BC FB             1252             DB      0FBH
03BD E7             1253             DB      0E7H
03BE 9F             1254             DB      09FH
03BF FF             1255             DB      0FFH
03C0 FF             1256             DB      0FFH
03C1 FF             1257             DB      0FFH
03C2 FF             1258             DB      0FFH
03C3 FF             1259             DB      0FFH
03C4 01             1260             DB      001H
03C5 7D             1261             DB      07DH
03C6 7D             1262             DB      07DH
03C7 7D             1263             DB      07DH
03C8 7D             1264             DB      07DH
03C9 7D             1265             DB      07DH
03CA 7D             1266             DB      07DH
03CB 7D             1267             DB      07DH
03CC 01             1268             DB      001H
03CD FF             1269             DB      0FFH
03CE FF             1270             DB      0FFH
03CF FF             1271             DB      0FFH
03D0 FF             1272             DB      0FFH
03D1 FF             1273             DB      0FFH
03D2 FF             1274             DB      0FFH
03D3 FF             1275             DB      0FFH
03D4 00             1276             DB      000H
03D5 BF             1277             DB      0BFH
03D6 BF             1278             DB      0BFH
03D7 BF             1279             DB      0BFH
03D8 BF             1280             DB      0BFH
03D9 BF             1281             DB      0BFH
03DA BF             1282             DB      0BFH
03DB BF             1283             DB      0BFH
03DC 00             1284             DB      000H
03DD FF             1285             DB      0FFH
03DE FF             1286             DB      0FFH
03DF FF             1287             DB      0FFH
                    1288     
03E0                1289     XLOC:
03E0 00             1290             DB      000H
03E1 01             1291             DB      001H
03E2 02             1292             DB      002H
03E3 00             1293             DB      000H
03E4 01             1294             DB      001H
03E5 02             1295             DB      002H
03E6 00             1296             DB      000H
03E7 01             1297             DB      001H
03E8 02             1298             DB      002H
                    1299     
03E9                1300     YLOC:
03E9 00             1301             DB      000H
03EA 00             1302             DB      000H
03EB 00             1303             DB      000H
03EC 01             1304             DB      001H
03ED 01             1305             DB      001H
03EE 01             1306             DB      001H
03EF 02             1307             DB      002H
03F0 02             1308             DB      002H
03F1 02             1309             DB      002H
                    1310     
03F2                1311     MAX_LOC:
A51 MACRO ASSEMBLER  MAIN                                                                 12/19/2019 15:45:25 PAGE    21

03F2 18             1312             DB      018H
03F3 3C             1313             DB      03CH
03F4 3C             1314             DB      03CH
                    1315     
                    1316     
----                1317             RSEG  ?C_INITSEG
0000 01             1318             DB      001H
0001 00       F     1319             DB      SWITCH
0002 00             1320             DB      000H
                    1321     
0003 07             1322             DB      007H
0004 00       F     1323             DB      res
0005 00             1324             DB      000H
0006 1D             1325             DB      01DH
0007 11             1326             DB      011H
0008 11             1327             DB      011H
0009 0C             1328             DB      00CH
000A 02             1329             DB      002H
000B 13             1330             DB      013H
                    1331     
000C 01             1332             DB      001H
000D 00       F     1333             DB      POI
000E 00             1334             DB      000H
                    1335     
000F 06             1336             DB      006H
0010 00       F     1337             DB      LOC
0011 00             1338             DB      000H
0012 02             1339             DB      002H
0013 03             1340             DB      003H
0014 04             1341             DB      004H
0015 05             1342             DB      005H
0016 06             1343             DB      006H
                    1344     
0017 01             1345             DB      001H
0018 00       F     1346             DB      X_POI
0019 00             1347             DB      000H
                    1348     
001A 01             1349             DB      001H
001B 00       F     1350             DB      Y_POI
001C 00             1351             DB      000H
                    1352     
001D 01             1353             DB      001H
001E 00       F     1354             DB      XY_POI
001F 00             1355             DB      000H
                    1356     
0020 02             1357             DB      002H
0021 00       F     1358             DB      last_val
0022 0000           1359             DW      00000H
                    1360     
                    1361     ; #include <KS0108.h>
                    1362     ; #include <lang.h>
                    1363     ; #include <FONT.h>
                    1364     ; #include <DS1302.h>
                    1365     ; #include <DS18B20.h>
                    1366     ; 
                    1367     ; sbit SOUND = P1 ^ 0;
                    1368     ; sbit UP = P1 ^ 2;
                    1369     
----                1370             RSEG  ?PR?_dely_ms?MAIN
0000                1371     _dely_ms:
                    1372             USING   0
                    1373                             ; SOURCE LINE # 8
                    1374     ;---- Variable 'i?041' assigned to Register 'R4/R5' ----
                    1375     ;---- Variable 'tim?040' assigned to Register 'R6/R7' ----
0000                1376     ?C0001:
                    1377     ; sbit DOWN = P1 ^ 3;
A51 MACRO ASSEMBLER  MAIN                                                                 12/19/2019 15:45:25 PAGE    22

                    1378     ; sbit LEFT = P1 ^ 4;
                    1379                             ; SOURCE LINE # 10
0000 EF             1380             MOV     A,R7
0001 1F             1381             DEC     R7
0002 AA06           1382             MOV     R2,AR6
0004 7001           1383             JNZ     ?C0228
0006 1E             1384             DEC     R6
0007                1385     ?C0228:
0007 4A             1386             ORL     A,R2
0008 6013           1387             JZ      ?C0006
                    1388     ; sbit RIGHT = P1 ^ 5;
                    1389                             ; SOURCE LINE # 11
000A E4             1390             CLR     A
000B FC             1391             MOV     R4,A
000C FD             1392             MOV     R5,A
000D                1393     ?C0003:
000D C3             1394             CLR     C
000E ED             1395             MOV     A,R5
000F 9479           1396             SUBB    A,#079H
0011 EC             1397             MOV     A,R4
0012 9400           1398             SUBB    A,#00H
0014 50EA           1399             JNC     ?C0001
0016 0D             1400             INC     R5
0017 BD0001         1401             CJNE    R5,#00H,?C0229
001A 0C             1402             INC     R4
001B                1403     ?C0229:
001B 80F0           1404             SJMP    ?C0003
                    1405     ; sbit EXIT = P1 ^ 6;
                    1406                             ; SOURCE LINE # 12
001D                1407     ?C0006:
001D 22             1408             RET     
                    1409     ; END OF _dely_ms
                    1410     
                    1411     ; sbit LED = P2 ^ 7;
                    1412     ; uchar SWITCH = 0;
                    1413     ; uchar res[7] = {
                    1414     ;       0,29,17,17,12,2,19
                    1415     ; };
                    1416     ; uchar POI = 0;
                    1417     ; uchar LOC[6] = {0,2,3,4,5,6};
                    1418     ; uchar cla_[3][3];
                    1419     ; code uchar XLOC[] = {0,1,2,0,1,2,0,1,2};
                    1420     ; code uchar YLOC[] = {0,0,0,1,1,1,2,2,2};
                    1421     ; code uchar MAX_LOC[] = {24,60,60};
                    1422     ; uchar X_POI = 0;
                    1423     ; uchar Y_POI = 0;
                    1424     ; uchar XY_POI = 0;
                    1425     ; void show_first_word(){
                    1426     ; 
                    1427     ;       show_font_16(1,32,3,HanZi_16[0]);
                    1428     ;       show_font_16(1,48,3,HanZi_16[1]);
                    1429     
----                1430             RSEG  ?PR?_select_side?MAIN
0000                1431     _select_side:
                    1432                             ; SOURCE LINE # 30
                    1433     ;---- Variable 'buf?142' assigned to Register 'R7' ----
                    1434     ;       show_font_16(2,0,3,HanZi_16[2]);
                    1435                             ; SOURCE LINE # 31
0000 EF             1436             MOV     A,R7
0001 30E004         1437             JNB     ACC.0,?C0007
                    1438     ;       show_font_16(2,16,3,HanZi_16[3]);
                    1439                             ; SOURCE LINE # 32
0004 C2A0           1440             CLR     CS1
0006 8002           1441             SJMP    ?C0008
0008                1442     ?C0007:
                    1443     ;       dely_ms(2500);
A51 MACRO ASSEMBLER  MAIN                                                                 12/19/2019 15:45:25 PAGE    23

                    1444     ;       cls_disy(3);
                    1445                             ; SOURCE LINE # 34
0008 D2A0           1446             SETB    CS1
000A                1447     ?C0008:
                    1448     ; 
                    1449     ; }
                    1450                             ; SOURCE LINE # 36
000A EF             1451             MOV     A,R7
000B 30E103         1452             JNB     ACC.1,?C0009
                    1453     ; 
                    1454                             ; SOURCE LINE # 37
000E C2A1           1455             CLR     CS2
0010 22             1456             RET     
0011                1457     ?C0009:
                    1458     ; void show_time(){
                    1459     ;       uchar buf;
                    1460                             ; SOURCE LINE # 39
0011 D2A1           1461             SETB    CS2
                    1462     ;       // 
                    1463                             ; SOURCE LINE # 40
0013                1464     ?C0011:
0013 22             1465             RET     
                    1466     ; END OF _select_side
                    1467     
                    1468     ;       // 
                    1469     ;       buf = res[0];
                    1470     
----                1471             RSEG  ?PR?wait_busy?MAIN
0000                1472     wait_busy:
                    1473                             ; SOURCE LINE # 42
                    1474     ;       show_font_8(1,8*1,0,NUM[buf%10]);
                    1475                             ; SOURCE LINE # 43
0000 C2A3           1476             CLR     RS
                    1477     ;       buf /= 10;
                    1478                             ; SOURCE LINE # 44
0002 D2A2           1479             SETB    RW
0004                1480     ?C0014:
                    1481     ;       show_font_8(1,8*0,0,NUM[buf%10]);
                    1482                             ; SOURCE LINE # 45
                    1483     ;       
                    1484                             ; SOURCE LINE # 46
0004 E4             1485             CLR     A
0005 F580           1486             MOV     P0,A
                    1487     ;       show_font_8(1,8*2,0,Sing[1]);
                    1488                             ; SOURCE LINE # 47
0007 D2A4           1489             SETB    EN
                    1490     ;       //
                    1491                             ; SOURCE LINE # 48
0009 C2A4           1492             CLR     EN
                    1493     ;       buf = res[2];
                    1494                             ; SOURCE LINE # 49
000B E580           1495             MOV     A,P0
000D 20E7F4         1496             JB      ACC.7,?C0014
                    1497     ;       show_font_8(1,8*4,0,NUM[buf%10]);
                    1498                             ; SOURCE LINE # 50
0010 22             1499             RET     
                    1500     ; END OF wait_busy
                    1501     
                    1502     ;       buf /= 10;
                    1503     
----                1504             RSEG  ?PR?_write_ord?MAIN
0000                1505     L?0257:
                    1506             USING   0
0000 44B8           1507             ORL     A,#0B8H
0002 FF             1508             MOV     R7,A
0003 120000   F     1509             LCALL   _write_ord
A51 MACRO ASSEMBLER  MAIN                                                                 12/19/2019 15:45:25 PAGE    24

0006 7F40           1510             MOV     R7,#040H
0008                1511     _write_ord:
                    1512                             ; SOURCE LINE # 51
                    1513     ;---- Variable 'ord?343' assigned to Register 'R7' ----
                    1514     ;       show_font_8(1,8*3,0,NUM[buf%10]);
                    1515                             ; SOURCE LINE # 52
0008 120000   F     1516             LCALL   wait_busy
                    1517     ;       
                    1518     ;       show_font_8(1,8*5,0,Sing[1]);
                    1519                             ; SOURCE LINE # 54
000B C2A3           1520             CLR     RS
                    1521     ;       
                    1522                             ; SOURCE LINE # 55
000D C2A2           1523             CLR     RW
                    1524     ;       //
                    1525                             ; SOURCE LINE # 56
000F 8F80           1526             MOV     P0,R7
                    1527     ;       buf = res[3];
                    1528     ;       show_font_8(1,8*7,0,NUM[buf%10]);
                    1529                             ; SOURCE LINE # 58
0011 D2A4           1530             SETB    EN
                    1531     ;       buf /= 10;
                    1532                             ; SOURCE LINE # 59
0013 C2A4           1533             CLR     EN
                    1534     ;       show_font_8(1,8*6,0,NUM[buf%10]);
                    1535                             ; SOURCE LINE # 60
0015 22             1536             RET     
                    1537     ; END OF _write_ord
                    1538     
                    1539     ;       
                    1540     ;       //
                    1541     
----                1542             RSEG  ?PR?_write_data?MAIN
0000                1543     L?0252:
                    1544             USING   0
0000 AB00     F     1545             MOV     R3,arr?957
0002 AA00     F     1546             MOV     R2,arr?957+01H
0004 A900     F     1547             MOV     R1,arr?957+02H
0006                1548     L?0253:
0006 8C82           1549             MOV     DPL,R4
0008 758300         1550             MOV     DPH,#00H
000B 120000   F     1551             LCALL   ?C?CLDOPTR
000E FF             1552             MOV     R7,A
000F                1553     _write_data:
                    1554                             ; SOURCE LINE # 62
                    1555     ;---- Variable 'dat?444' assigned to Register 'R7' ----
                    1556     ;       // 
                    1557                             ; SOURCE LINE # 63
000F 120000   F     1558             LCALL   wait_busy
                    1559     ;       buf = res[4];
                    1560     ;       show_font_8(1,8*1,2,NUM[buf%10]);
                    1561                             ; SOURCE LINE # 65
0012 D2A3           1562             SETB    RS
                    1563     ;       buf /= 10;
                    1564                             ; SOURCE LINE # 66
0014 C2A2           1565             CLR     RW
                    1566     ;       show_font_8(1,8*0,2,NUM[buf%10]);
                    1567     ;       
                    1568                             ; SOURCE LINE # 68
0016 8F80           1569             MOV     P0,R7
                    1570     ;       show_font_8(1,8*2,2,Sing[0]);
                    1571     ;       //
                    1572                             ; SOURCE LINE # 70
0018 D2A4           1573             SETB    EN
                    1574     ;       buf = res[5];
                    1575                             ; SOURCE LINE # 71
A51 MACRO ASSEMBLER  MAIN                                                                 12/19/2019 15:45:25 PAGE    25

001A C2A4           1576             CLR     EN
                    1577     ;       show_font_8(1,8*4,2,NUM[buf%10]);
                    1578                             ; SOURCE LINE # 72
001C 22             1579             RET     
                    1580     ; END OF _write_data
                    1581     
                    1582     ;       buf /= 10;
                    1583     ;       show_font_8(1,8*3,2,NUM[buf%10]);
                    1584     
----                1585             RSEG  ?PR?led_init?MAIN
0000                1586     led_init:
                    1587             USING   0
                    1588                             ; SOURCE LINE # 74
                    1589     ;       
                    1590                             ; SOURCE LINE # 75
0000 7F3F           1591             MOV     R7,#03FH
0002 120000   F     1592             LCALL   _write_ord
                    1593     ;       show_font_8(1,8*5,2,Sing[0]);
                    1594                             ; SOURCE LINE # 76
0005 7FB8           1595             MOV     R7,#0B8H
0007 120000   F     1596             LCALL   _write_ord
                    1597     ;       
                    1598                             ; SOURCE LINE # 77
000A 7F40           1599             MOV     R7,#040H
000C 020000   F     1600             LJMP    _write_ord
                    1601     ; END OF led_init
                    1602     
                    1603     ;       //
                    1604     ;       buf = res[6];
                    1605     ;       show_font_8(1,8*7,2,NUM[buf%10]);
                    1606     
----                1607             RSEG  ?PR?_cls_disy?MAIN
0000                1608     _cls_disy:
                    1609             USING   0
                    1610                             ; SOURCE LINE # 80
                    1611     ;---- Variable 'side?645' assigned to Register 'R7' ----
                    1612     ;       buf /= 10;
                    1613     ;       show_font_8(1,8*6,2,NUM[buf%10]);
                    1614                             ; SOURCE LINE # 82
0000 120000   F     1615             LCALL   _select_side
                    1616     ;       
                    1617                             ; SOURCE LINE # 83
                    1618     ;---- Variable 'i?646' assigned to Register 'R6' ----
0003 E4             1619             CLR     A
0004 FE             1620             MOV     R6,A
0005                1621     ?C0019:
0005 EE             1622             MOV     A,R6
0006 C3             1623             CLR     C
0007 9408           1624             SUBB    A,#08H
0009 7480           1625             MOV     A,#080H
000B 9480           1626             SUBB    A,#080H
000D 501B           1627             JNC     ?C0025
                    1628     ;       //
                    1629                             ; SOURCE LINE # 84
000F EE             1630             MOV     A,R6
                    1631     ;       buf = res[1];
                    1632                             ; SOURCE LINE # 85
0010 120000   F     1633             LCALL   L?0257
                    1634     ;       show_font_16(1,0,4,HanZi_16[4]);
                    1635                             ; SOURCE LINE # 86
                    1636     ;---- Variable 'j?647' assigned to Register 'R5' ----
0013 E4             1637             CLR     A
0014 FD             1638             MOV     R5,A
0015                1639     ?C0022:
0015 ED             1640             MOV     A,R5
0016 C3             1641             CLR     C
A51 MACRO ASSEMBLER  MAIN                                                                 12/19/2019 15:45:25 PAGE    26

0017 9440           1642             SUBB    A,#040H
0019 7480           1643             MOV     A,#080H
001B 9480           1644             SUBB    A,#080H
001D 5008           1645             JNC     ?C0021
                    1646     ;       show_font_16(1,16,4,HanZi_16[5]);
                    1647                             ; SOURCE LINE # 87
001F 7FFF           1648             MOV     R7,#0FFH
0021 120000   F     1649             LCALL   _write_data
0024 0D             1650             INC     R5
0025 80EE           1651             SJMP    ?C0022
                    1652     ;       show_font_16(1,16*2,4,HZ_Num[buf]);
                    1653                             ; SOURCE LINE # 88
0027                1654     ?C0021:
0027 0E             1655             INC     R6
0028 80DB           1656             SJMP    ?C0019
                    1657     ; }
                    1658                             ; SOURCE LINE # 89
002A                1659     ?C0025:
002A 22             1660             RET     
                    1661     ; END OF _cls_disy
                    1662     
                    1663     ; 
                    1664     
----                1665             RSEG  ?PR?_cls_disy_dely?MAIN
0000                1666     _cls_disy_dely:
                    1667             USING   0
                    1668                             ; SOURCE LINE # 90
                    1669     ;---- Variable 'tim?749' assigned to Register 'R1' ----
0000 A905           1670             MOV     R1,AR5
                    1671     ;---- Variable 'side?748' assigned to Register 'R7' ----
                    1672     ; void show_del(){
                    1673     ;       uchar buf;
                    1674                             ; SOURCE LINE # 92
0002 120000   F     1675             LCALL   _select_side
                    1676     ;       //
                    1677                             ; SOURCE LINE # 93
                    1678     ;---- Variable 'i?750' assigned to Register 'R3' ----
0005 E4             1679             CLR     A
0006 FB             1680             MOV     R3,A
0007                1681     ?C0026:
0007 EB             1682             MOV     A,R3
0008 C3             1683             CLR     C
0009 9408           1684             SUBB    A,#08H
000B 7480           1685             MOV     A,#080H
000D 9480           1686             SUBB    A,#080H
000F 5022           1687             JNC     ?C0032
                    1688     ;       // 
                    1689                             ; SOURCE LINE # 94
0011 EB             1690             MOV     A,R3
                    1691     ;       buf = cla_[0][0];
                    1692                             ; SOURCE LINE # 95
0012 120000   F     1693             LCALL   L?0257
                    1694     ;       show_font_8f(2,8*1,0,NUM[buf%10],(X_POI == 0 && Y_POI == 0));
                    1695                             ; SOURCE LINE # 96
                    1696     ;---- Variable 'j?751' assigned to Register 'R6' ----
0015 E4             1697             CLR     A
0016 FE             1698             MOV     R6,A
0017                1699     ?C0029:
0017 EE             1700             MOV     A,R6
0018 C3             1701             CLR     C
0019 9440           1702             SUBB    A,#040H
001B 7480           1703             MOV     A,#080H
001D 9480           1704             SUBB    A,#080H
001F 5008           1705             JNC     ?C0030
                    1706     ;       buf /= 10;
                    1707                             ; SOURCE LINE # 97
A51 MACRO ASSEMBLER  MAIN                                                                 12/19/2019 15:45:25 PAGE    27

0021 7FFF           1708             MOV     R7,#0FFH
0023 120000   F     1709             LCALL   _write_data
0026 0E             1710             INC     R6
0027 80EE           1711             SJMP    ?C0029
0029                1712     ?C0030:
                    1713     ;       show_font_8f(2,8*0,0,NUM[buf%10],(X_POI == 0 && Y_POI == 0));
                    1714                             ; SOURCE LINE # 98
0029 E9             1715             MOV     A,R1
002A FF             1716             MOV     R7,A
002B 7E00           1717             MOV     R6,#00H
002D 120000   F     1718             LCALL   _dely_ms
                    1719     ;       
                    1720                             ; SOURCE LINE # 99
0030 0B             1721             INC     R3
0031 80D4           1722             SJMP    ?C0026
                    1723     ;       show_font_8(2,8*2,0,Sing[0]);
                    1724                             ; SOURCE LINE # 100
0033                1725     ?C0032:
0033 22             1726             RET     
                    1727     ; END OF _cls_disy_dely
                    1728     
                    1729     ;       //
                    1730     ;       buf = cla_[0][1];
                    1731     ;       show_font_8f(2,8*4,0,NUM[buf%10],(X_POI == 1 && Y_POI == 0));
                    1732     ;       buf /= 10;
                    1733     ;       show_font_8f(2,8*3,0,NUM[buf%10],(X_POI == 1 && Y_POI == 0));
                    1734     
----                1735             RSEG  ?PR?_set_loc?MAIN
0000                1736     _set_loc:
                    1737             USING   0
                    1738                             ; SOURCE LINE # 105
                    1739     ;---- Variable 'y?853' assigned to Register 'R5' ----
                    1740     ;---- Variable 'x?852' assigned to Register 'R6' ----
0000 AE07           1741             MOV     R6,AR7
                    1742     ;       
                    1743                             ; SOURCE LINE # 106
0002 EE             1744             MOV     A,R6
0003 C3             1745             CLR     C
0004 9440           1746             SUBB    A,#040H
0006 7480           1747             MOV     A,#080H
0008 9480           1748             SUBB    A,#080H
000A 5018           1749             JNC     ?C0035
000C ED             1750             MOV     A,R5
000D C3             1751             CLR     C
000E 9409           1752             SUBB    A,#09H
0010 7480           1753             MOV     A,#080H
0012 9480           1754             SUBB    A,#080H
0014 500E           1755             JNC     ?C0035
                    1756     ;       show_font_8(2,8*5,0,Sing[0]);
                    1757     ;       
                    1758                             ; SOURCE LINE # 108
0016 ED             1759             MOV     A,R5
0017 44B8           1760             ORL     A,#0B8H
0019 FF             1761             MOV     R7,A
001A 120000   F     1762             LCALL   _write_ord
                    1763     ;       //
                    1764                             ; SOURCE LINE # 109
001D EE             1765             MOV     A,R6
001E 4440           1766             ORL     A,#040H
0020 FF             1767             MOV     R7,A
0021 120000   F     1768             LCALL   _write_ord
                    1769     ;       buf = cla_[0][2];
                    1770                             ; SOURCE LINE # 110
0024                1771     ?C0035:
0024 22             1772             RET     
                    1773     ; END OF _set_loc
A51 MACRO ASSEMBLER  MAIN                                                                 12/19/2019 15:45:25 PAGE    28

                    1774     
                    1775     ;       show_font_8f(2,8*7,0,NUM[buf%10],(X_POI == 2 && Y_POI == 0));
                    1776     ;       buf /= 10;
                    1777     
----                1778             RSEG  ?PR?_show_font_8?MAIN
0000                1779     L?0251:
                    1780             USING   0
0000 E4             1781             CLR     A
0001 FB             1782             MOV     R3,A
0002 7F01           1783             MOV     R7,#01H
0004                1784     _show_font_8:
                    1785             USING   0
                    1786                             ; SOURCE LINE # 112
0004 8D00     F     1787             MOV     x?955,R5
0006 8B00     F     1788             MOV     y?956,R3
                    1789     ;---- Variable 'side?954' assigned to Register 'R7' ----
                    1790     ;       show_font_8f(2,8*6,0,NUM[buf%10],(X_POI == 2 && Y_POI == 0));   
                    1791                             ; SOURCE LINE # 113
                    1792     ;---- Variable 'i?958' assigned to Register 'R4' ----
0008 E4             1793             CLR     A
0009 FC             1794             MOV     R4,A
                    1795     ;       
                    1796                             ; SOURCE LINE # 114
000A 120000   F     1797             LCALL   _select_side
                    1798     ;       //
                    1799                             ; SOURCE LINE # 115
000D AD00     F     1800             MOV     R5,y?956
000F AF00     F     1801             MOV     R7,x?955
0011 120000   F     1802             LCALL   _set_loc
                    1803     ;       // 
                    1804                             ; SOURCE LINE # 116
0014                1805     ?C0036:
0014 EC             1806             MOV     A,R4
0015 C3             1807             CLR     C
0016 9408           1808             SUBB    A,#08H
0018 7480           1809             MOV     A,#080H
001A 9480           1810             SUBB    A,#080H
001C 5006           1811             JNC     ?C0037
001E 120000   F     1812             LCALL   L?0252
0021 0C             1813             INC     R4
0022 80F0           1814             SJMP    ?C0036
0024                1815     ?C0037:
                    1816     ;       buf = cla_[1][0];
                    1817                             ; SOURCE LINE # 117
0024 E500     F     1818             MOV     A,y?956
0026 04             1819             INC     A
0027 FD             1820             MOV     R5,A
0028 AF00     F     1821             MOV     R7,x?955
002A 120000   F     1822             LCALL   _set_loc
                    1823     ;       show_font_8f(2,8*1,2,NUM[buf%10],(X_POI == 0 && Y_POI == 1));
                    1824                             ; SOURCE LINE # 118
002D                1825     ?C0039:
002D EC             1826             MOV     A,R4
002E C3             1827             CLR     C
002F 9410           1828             SUBB    A,#010H
0031 7480           1829             MOV     A,#080H
0033 9480           1830             SUBB    A,#080H
0035 5006           1831             JNC     ?C0042
0037 120000   F     1832             LCALL   L?0252
003A 0C             1833             INC     R4
003B 80F0           1834             SJMP    ?C0039
                    1835     ;       buf /= 10;
                    1836                             ; SOURCE LINE # 119
003D                1837     ?C0042:
003D 22             1838             RET     
                    1839     ; END OF _show_font_8
A51 MACRO ASSEMBLER  MAIN                                                                 12/19/2019 15:45:25 PAGE    29

                    1840     
                    1841     ;       show_font_8f(2,8*0,2,NUM[buf%10],(X_POI == 0 && Y_POI == 1));
                    1842     ;       
                    1843     
----                1844             RSEG  ?PR?_show_font_8f?MAIN
0000                1845     L?0254:
                    1846             USING   0
0000 E4             1847             CLR     A
0001 FB             1848             MOV     R3,A
0002 7F02           1849             MOV     R7,#02H
0004                1850     _show_font_8f:
                    1851             USING   0
                    1852                             ; SOURCE LINE # 121
0004 8D00     F     1853             MOV     x?1060,R5
0006 8B00     F     1854             MOV     y?1061,R3
                    1855     ;---- Variable 'side?1059' assigned to Register 'R7' ----
                    1856     ;       show_font_8(2,8*2,2,Sing[0]);
                    1857                             ; SOURCE LINE # 122
                    1858     ;---- Variable 'i?1064' assigned to Register 'R4' ----
0008 E4             1859             CLR     A
0009 FC             1860             MOV     R4,A
                    1861     ;       //
                    1862                             ; SOURCE LINE # 123
000A 120000   F     1863             LCALL   _select_side
                    1864     ;       buf = cla_[1][1];
                    1865                             ; SOURCE LINE # 124
000D AD00     F     1866             MOV     R5,y?1061
000F AF00     F     1867             MOV     R7,x?1060
0011 120000   F     1868             LCALL   _set_loc
                    1869     ;       show_font_8f(2,8*4,2,NUM[buf%10],(X_POI == 1 && Y_POI == 1));
                    1870                             ; SOURCE LINE # 125
0014                1871     ?C0043:
0014 EC             1872             MOV     A,R4
0015 C3             1873             CLR     C
0016 9408           1874             SUBB    A,#08H
0018 7480           1875             MOV     A,#080H
001A 9480           1876             SUBB    A,#080H
001C 5024           1877             JNC     ?C0044
                    1878     ;       buf /= 10;
                    1879                             ; SOURCE LINE # 126
001E E500     F     1880             MOV     A,isf?1063
0020 AB00     F     1881             MOV     R3,arr?1062
0022 AA00     F     1882             MOV     R2,arr?1062+01H
0024 A900     F     1883             MOV     R1,arr?1062+02H
0026 600B           1884             JZ      ?C0046
0028 8C82           1885             MOV     DPL,R4
002A 758300         1886             MOV     DPH,#00H
002D 120000   F     1887             LCALL   ?C?CLDOPTR
0030 F4             1888             CPL     A
0031 8008           1889             SJMP    ?C0236
0033                1890     ?C0046:
                    1891     ;       show_font_8f(2,8*3,2,NUM[buf%10],(X_POI == 1 && Y_POI == 1));
                    1892                             ; SOURCE LINE # 127
0033 8C82           1893             MOV     DPL,R4
0035 758300         1894             MOV     DPH,#00H
0038 120000   F     1895             LCALL   ?C?CLDOPTR
003B                1896     ?C0236:
003B FF             1897             MOV     R7,A
003C 120000   F     1898             LCALL   _write_data
003F                1899     ?C0045:
003F 0C             1900             INC     R4
0040 80D2           1901             SJMP    ?C0043
0042                1902     ?C0044:
                    1903     ;       
                    1904                             ; SOURCE LINE # 128
0042 E500     F     1905             MOV     A,y?1061
A51 MACRO ASSEMBLER  MAIN                                                                 12/19/2019 15:45:25 PAGE    30

0044 04             1906             INC     A
0045 FD             1907             MOV     R5,A
0046 AF00     F     1908             MOV     R7,x?1060
0048 120000   F     1909             LCALL   _set_loc
                    1910     ;       show_font_8(2,8*5,2,Sing[0]);
                    1911                             ; SOURCE LINE # 129
004B                1912     ?C0048:
004B EC             1913             MOV     A,R4
004C C3             1914             CLR     C
004D 9410           1915             SUBB    A,#010H
004F 7480           1916             MOV     A,#080H
0051 9480           1917             SUBB    A,#080H
0053 5024           1918             JNC     ?C0053
                    1919     ;       
                    1920                             ; SOURCE LINE # 130
0055 E500     F     1921             MOV     A,isf?1063
0057 AB00     F     1922             MOV     R3,arr?1062
0059 AA00     F     1923             MOV     R2,arr?1062+01H
005B A900     F     1924             MOV     R1,arr?1062+02H
005D 600B           1925             JZ      ?C0051
005F 8C82           1926             MOV     DPL,R4
0061 758300         1927             MOV     DPH,#00H
0064 120000   F     1928             LCALL   ?C?CLDOPTR
0067 F4             1929             CPL     A
0068 8008           1930             SJMP    ?C0237
006A                1931     ?C0051:
                    1932     ;       //
                    1933                             ; SOURCE LINE # 131
006A 8C82           1934             MOV     DPL,R4
006C 758300         1935             MOV     DPH,#00H
006F 120000   F     1936             LCALL   ?C?CLDOPTR
0072                1937     ?C0237:
0072 FF             1938             MOV     R7,A
0073 120000   F     1939             LCALL   _write_data
0076                1940     ?C0050:
0076 0C             1941             INC     R4
0077 80D2           1942             SJMP    ?C0048
                    1943     ;       buf = cla_[1][2];
                    1944                             ; SOURCE LINE # 132
0079                1945     ?C0053:
0079 22             1946             RET     
                    1947     ; END OF _show_font_8f
                    1948     
                    1949     ;       show_font_8f(2,8*7,2,NUM[buf%10],(X_POI == 2 && Y_POI == 1));
                    1950     ;       buf /= 10;
                    1951     
----                1952             RSEG  ?PR?_show_font_16?MAIN
0000                1953     L?0255:
                    1954             USING   0
0000                1955     L?0256:
0000 7D10           1956             MOV     R5,#010H
0002 7F01           1957             MOV     R7,#01H
0004                1958     _show_font_16:
                    1959             USING   0
                    1960                             ; SOURCE LINE # 134
0004 8D00     F     1961             MOV     x?1166,R5
0006 8B00     F     1962             MOV     y?1167,R3
                    1963     ;---- Variable 'side?1165' assigned to Register 'R7' ----
                    1964     ;       show_font_8f(2,8*6,2,NUM[buf%10],(X_POI == 2 && Y_POI == 1));
                    1965                             ; SOURCE LINE # 135
                    1966     ;---- Variable 'i?1169' assigned to Register 'R4' ----
0008 E4             1967             CLR     A
0009 FC             1968             MOV     R4,A
                    1969     ;       
                    1970                             ; SOURCE LINE # 136
000A 120000   F     1971             LCALL   _select_side
A51 MACRO ASSEMBLER  MAIN                                                                 12/19/2019 15:45:25 PAGE    31

                    1972     ;       //
                    1973                             ; SOURCE LINE # 137
000D AD00     F     1974             MOV     R5,y?1167
000F AF00     F     1975             MOV     R7,x?1166
0011 120000   F     1976             LCALL   _set_loc
                    1977     ;       // 
                    1978                             ; SOURCE LINE # 138
0014                1979     ?C0054:
0014 EC             1980             MOV     A,R4
0015 C3             1981             CLR     C
0016 9410           1982             SUBB    A,#010H
0018 7480           1983             MOV     A,#080H
001A 9480           1984             SUBB    A,#080H
001C 500C           1985             JNC     ?C0055
001E AB00     F     1986             MOV     R3,arr?1168
0020 AA00     F     1987             MOV     R2,arr?1168+01H
0022 A900     F     1988             MOV     R1,arr?1168+02H
0024 120000   F     1989             LCALL   L?0253
0027 0C             1990             INC     R4
0028 80EA           1991             SJMP    ?C0054
002A                1992     ?C0055:
                    1993     ;       buf = cla_[2][0];
                    1994                             ; SOURCE LINE # 139
002A E500     F     1995             MOV     A,y?1167
002C 04             1996             INC     A
002D FD             1997             MOV     R5,A
002E AF00     F     1998             MOV     R7,x?1166
0030 120000   F     1999             LCALL   _set_loc
                    2000     ;       show_font_8f(2,8*1,4,NUM[buf%10],(X_POI == 0 && Y_POI == 2));
                    2001                             ; SOURCE LINE # 140
0033                2002     ?C0057:
0033 EC             2003             MOV     A,R4
0034 C3             2004             CLR     C
0035 9420           2005             SUBB    A,#020H
0037 7480           2006             MOV     A,#080H
0039 9480           2007             SUBB    A,#080H
003B 500C           2008             JNC     ?C0060
003D AB00     F     2009             MOV     R3,arr?1168
003F AA00     F     2010             MOV     R2,arr?1168+01H
0041 A900     F     2011             MOV     R1,arr?1168+02H
0043 120000   F     2012             LCALL   L?0253
0046 0C             2013             INC     R4
0047 80EA           2014             SJMP    ?C0057
                    2015     ;       buf /= 10;
                    2016                             ; SOURCE LINE # 141
0049                2017     ?C0060:
0049 22             2018             RET     
                    2019     ; END OF _show_font_16
                    2020     
                    2021     
----                2022             RSEG  ?PR?_BCD_Decimal?MAIN
0000                2023     _BCD_Decimal:
                    2024             USING   0
                    2025                             ; SOURCE LINE # 33
                    2026     ;---- Variable 'bcd?1270' assigned to Register 'R7' ----
                    2027                             ; SOURCE LINE # 34
                    2028                             ; SOURCE LINE # 36
0000 EF             2029             MOV     A,R7
0001 C4             2030             SWAP    A
0002 540F           2031             ANL     A,#0FH
0004 FE             2032             MOV     R6,A
                    2033     ;---- Variable 'Decimal?1271' assigned to Register 'R6' ----
                    2034                             ; SOURCE LINE # 37
0005 EF             2035             MOV     A,R7
0006 540F           2036             ANL     A,#0FH
0008 FD             2037             MOV     R5,A
A51 MACRO ASSEMBLER  MAIN                                                                 12/19/2019 15:45:25 PAGE    32

0009 EE             2038             MOV     A,R6
000A 75F00A         2039             MOV     B,#0AH
000D A4             2040             MUL     AB
000E 2D             2041             ADD     A,R5
                    2042                             ; SOURCE LINE # 38
000F FF             2043             MOV     R7,A
                    2044                             ; SOURCE LINE # 39
0010 22             2045             RET     
                    2046     ; END OF _BCD_Decimal
                    2047     
                    2048     
----                2049             RSEG  ?PR?_Dec_BCD?MAIN
0000                2050     _Dec_BCD:
                    2051             USING   0
                    2052                             ; SOURCE LINE # 41
                    2053     ;---- Variable 'dec?1372' assigned to Register 'R7' ----
                    2054                             ; SOURCE LINE # 42
0000 EF             2055             MOV     A,R7
0001 75F00A         2056             MOV     B,#0AH
0004 84             2057             DIV     AB
0005 C4             2058             SWAP    A
0006 54F0           2059             ANL     A,#0F0H
0008 FE             2060             MOV     R6,A
0009 EF             2061             MOV     A,R7
000A 75F00A         2062             MOV     B,#0AH
000D 84             2063             DIV     AB
000E E5F0           2064             MOV     A,B
0010 2E             2065             ADD     A,R6
0011 FF             2066             MOV     R7,A
                    2067                             ; SOURCE LINE # 43
0012 22             2068             RET     
                    2069     ; END OF _Dec_BCD
                    2070     
                    2071     
----                2072             RSEG  ?PR?_write_1302_byte?MAIN
0000                2073     L?0258:
                    2074             USING   0
0000 C2B7           2075             CLR     T_RST
0002 C2B6           2076             CLR     T_CLK
0004 D2B7           2077             SETB    T_RST
0006                2078     _write_1302_byte:
                    2079             USING   0
                    2080                             ; SOURCE LINE # 48
                    2081     ;---- Variable 'dat?1473' assigned to Register 'R7' ----
                    2082                             ; SOURCE LINE # 49
                    2083                             ; SOURCE LINE # 51
                    2084     ;---- Variable 'i?1474' assigned to Register 'R6' ----
0006 E4             2085             CLR     A
0007 FE             2086             MOV     R6,A
0008                2087     ?C0063:
0008 EE             2088             MOV     A,R6
0009 C3             2089             CLR     C
000A 9408           2090             SUBB    A,#08H
000C 7480           2091             MOV     A,#080H
000E 9480           2092             SUBB    A,#080H
0010 5015           2093             JNC     ?C0068
                    2094                             ; SOURCE LINE # 52
                    2095                             ; SOURCE LINE # 53
0012 EF             2096             MOV     A,R7
0013 30E004         2097             JNB     ACC.0,?C0066
0016 D2B5           2098             SETB    T_DAT
0018 8002           2099             SJMP    ?C0067
001A                2100     ?C0066:
                    2101                             ; SOURCE LINE # 54
001A C2B5           2102             CLR     T_DAT
001C                2103     ?C0067:
A51 MACRO ASSEMBLER  MAIN                                                                 12/19/2019 15:45:25 PAGE    33

                    2104                             ; SOURCE LINE # 55
001C D2B6           2105             SETB    T_CLK
                    2106                             ; SOURCE LINE # 56
001E EF             2107             MOV     A,R7
001F C3             2108             CLR     C
0020 13             2109             RRC     A
0021 FF             2110             MOV     R7,A
                    2111                             ; SOURCE LINE # 57
0022 C2B6           2112             CLR     T_CLK
                    2113                             ; SOURCE LINE # 58
0024 0E             2114             INC     R6
0025 80E1           2115             SJMP    ?C0063
                    2116                             ; SOURCE LINE # 59
0027                2117     ?C0068:
0027 22             2118             RET     
                    2119     ; END OF _write_1302_byte
                    2120     
                    2121     
----                2122             RSEG  ?PR?read_1302_byte?MAIN
0000                2123     read_1302_byte:
                    2124             USING   0
                    2125                             ; SOURCE LINE # 63
                    2126     ;---- Variable 'dat?1576' assigned to Register 'R7' ----
                    2127                             ; SOURCE LINE # 64
                    2128                             ; SOURCE LINE # 66
0000 D2B5           2129             SETB    T_DAT
                    2130                             ; SOURCE LINE # 67
                    2131     ;---- Variable 'i?1575' assigned to Register 'R6' ----
0002 E4             2132             CLR     A
0003 FE             2133             MOV     R6,A
0004                2134     ?C0069:
0004 EE             2135             MOV     A,R6
0005 C3             2136             CLR     C
0006 9408           2137             SUBB    A,#08H
0008 7480           2138             MOV     A,#080H
000A 9480           2139             SUBB    A,#080H
000C 5011           2140             JNC     ?C0070
                    2141                             ; SOURCE LINE # 68
                    2142                             ; SOURCE LINE # 69
000E EF             2143             MOV     A,R7
000F C3             2144             CLR     C
0010 13             2145             RRC     A
0011 FF             2146             MOV     R7,A
                    2147                             ; SOURCE LINE # 70
0012 30B503         2148             JNB     T_DAT,?C0072
0015 430780         2149             ORL     AR7,#080H
0018                2150     ?C0072:
                    2151                             ; SOURCE LINE # 71
0018 D2B6           2152             SETB    T_CLK
                    2153                             ; SOURCE LINE # 72
001A C2B6           2154             CLR     T_CLK
                    2155                             ; SOURCE LINE # 73
001C 0E             2156             INC     R6
001D 80E5           2157             SJMP    ?C0069
001F                2158     ?C0070:
                    2159                             ; SOURCE LINE # 74
                    2160                             ; SOURCE LINE # 75
001F 22             2161             RET     
                    2162     ; END OF read_1302_byte
                    2163     
                    2164     
----                2165             RSEG  ?PR?_write_1302?MAIN
0000                2166     _write_1302:
                    2167             USING   0
                    2168                             ; SOURCE LINE # 79
                    2169     ;---- Variable 'dat?1678' assigned to Register 'R5' ----
A51 MACRO ASSEMBLER  MAIN                                                                 12/19/2019 15:45:25 PAGE    34

                    2170     ;---- Variable 'addr?1677' assigned to Register 'R7' ----
                    2171                             ; SOURCE LINE # 80
                    2172                             ; SOURCE LINE # 81
                    2173                             ; SOURCE LINE # 82
                    2174                             ; SOURCE LINE # 83
                    2175                             ; SOURCE LINE # 85
0000 120000   F     2176             LCALL   L?0258
                    2177                             ; SOURCE LINE # 86
0003 AF05           2178             MOV     R7,AR5
0005 120000   F     2179             LCALL   _write_1302_byte
                    2180                             ; SOURCE LINE # 88
0008 C2B7           2181             CLR     T_RST
                    2182                             ; SOURCE LINE # 89
000A 22             2183             RET     
                    2184     ; END OF _write_1302
                    2185     
                    2186     
----                2187             RSEG  ?PR?_read_1302?MAIN
0000                2188     _read_1302:
                    2189             USING   0
                    2190                             ; SOURCE LINE # 93
                    2191     ;---- Variable 'addr?1779' assigned to Register 'R7' ----
                    2192                             ; SOURCE LINE # 94
                    2193                             ; SOURCE LINE # 97
                    2194                             ; SOURCE LINE # 98
                    2195                             ; SOURCE LINE # 99
                    2196                             ; SOURCE LINE # 101
0000 120000   F     2197             LCALL   L?0258
                    2198                             ; SOURCE LINE # 102
0003 120000   F     2199             LCALL   read_1302_byte
                    2200     ;---- Variable 'dat?1780' assigned to Register 'R7' ----
                    2201                             ; SOURCE LINE # 104
0006 C2B7           2202             CLR     T_RST
                    2203                             ; SOURCE LINE # 106
                    2204                             ; SOURCE LINE # 107
0008 22             2205             RET     
                    2206     ; END OF _read_1302
                    2207     
                    2208     
----                2209             RSEG  ?PR?_read_time?MAIN
0000                2210     _read_time:
                    2211             USING   0
                    2212                             ; SOURCE LINE # 113
0000 8B00     F     2213             MOV     p?1881,R3
0002 8A00     F     2214             MOV     p?1881+01H,R2
0004 8900     F     2215             MOV     p?1881+02H,R1
                    2216                             ; SOURCE LINE # 114
                    2217                             ; SOURCE LINE # 116
                    2218     ;---- Variable 'i?1882' assigned to Register 'R4' ----
0006 7C8D           2219             MOV     R4,#08DH
0008                2220     ?C0076:
0008 EC             2221             MOV     A,R4
0009 C3             2222             CLR     C
000A 9481           2223             SUBB    A,#081H
000C 7480           2224             MOV     A,#080H
000E 9480           2225             SUBB    A,#080H
0010 401E           2226             JC      ?C0079
                    2227                             ; SOURCE LINE # 117
                    2228                             ; SOURCE LINE # 118
0012 AF04           2229             MOV     R7,AR4
0014 120000   F     2230             LCALL   _read_1302
0017 120000   F     2231             LCALL   _BCD_Decimal
001A AB00     F     2232             MOV     R3,p?1881
001C 0500     F     2233             INC     p?1881+02H
001E E500     F     2234             MOV     A,p?1881+02H
0020 AA00     F     2235             MOV     R2,p?1881+01H
A51 MACRO ASSEMBLER  MAIN                                                                 12/19/2019 15:45:25 PAGE    35

0022 7002           2236             JNZ     ?C0230
0024 0500     F     2237             INC     p?1881+01H
0026                2238     ?C0230:
0026 14             2239             DEC     A
0027 F9             2240             MOV     R1,A
0028 EF             2241             MOV     A,R7
0029 120000   F     2242             LCALL   ?C?CSTPTR
                    2243                             ; SOURCE LINE # 119
002C 1C             2244             DEC     R4
                    2245                             ; SOURCE LINE # 120
002D 1C             2246             DEC     R4
002E 80D8           2247             SJMP    ?C0076
                    2248                             ; SOURCE LINE # 121
0030                2249     ?C0079:
0030 22             2250             RET     
                    2251     ; END OF _read_time
                    2252     
                    2253     
----                2254             RSEG  ?PR?_write_time?MAIN
0000                2255     _write_time:
                    2256             USING   0
                    2257                             ; SOURCE LINE # 127
0000 8B00     F     2258             MOV     p?1983,R3
0002 8A00     F     2259             MOV     p?1983+01H,R2
0004 8900     F     2260             MOV     p?1983+02H,R1
                    2261                             ; SOURCE LINE # 128
                    2262                             ; SOURCE LINE # 131
0006 E4             2263             CLR     A
0007 FD             2264             MOV     R5,A
0008 7F8E           2265             MOV     R7,#08EH
000A 120000   F     2266             LCALL   _write_1302
                    2267                             ; SOURCE LINE # 132
                    2268     ;---- Variable 'i?1984' assigned to Register 'R4' ----
000D 7C8C           2269             MOV     R4,#08CH
000F                2270     ?C0080:
000F EC             2271             MOV     A,R4
0010 C3             2272             CLR     C
0011 9480           2273             SUBB    A,#080H
0013 7480           2274             MOV     A,#080H
0015 9480           2275             SUBB    A,#080H
0017 4020           2276             JC      ?C0081
                    2277                             ; SOURCE LINE # 133
                    2278                             ; SOURCE LINE # 134
0019 AB00     F     2279             MOV     R3,p?1983
001B 0500     F     2280             INC     p?1983+02H
001D E500     F     2281             MOV     A,p?1983+02H
001F AA00     F     2282             MOV     R2,p?1983+01H
0021 7002           2283             JNZ     ?C0231
0023 0500     F     2284             INC     p?1983+01H
0025                2285     ?C0231:
0025 14             2286             DEC     A
0026 F9             2287             MOV     R1,A
0027 120000   F     2288             LCALL   ?C?CLDPTR
002A FF             2289             MOV     R7,A
002B 120000   F     2290             LCALL   _Dec_BCD
002E AD07           2291             MOV     R5,AR7
0030 AF04           2292             MOV     R7,AR4
0032 120000   F     2293             LCALL   _write_1302
                    2294                             ; SOURCE LINE # 135
0035 1C             2295             DEC     R4
                    2296                             ; SOURCE LINE # 136
0036 1C             2297             DEC     R4
0037 80D6           2298             SJMP    ?C0080
0039                2299     ?C0081:
                    2300                             ; SOURCE LINE # 137
0039 7D80           2301             MOV     R5,#080H
A51 MACRO ASSEMBLER  MAIN                                                                 12/19/2019 15:45:25 PAGE    36

003B 7F8E           2302             MOV     R7,#08EH
003D 020000   F     2303             LJMP    _write_1302
                    2304     ; END OF _write_time
                    2305     
                    2306     
----                2307             RSEG  ?PR?_DS18_delay?MAIN
0000                2308     _DS18_delay:
                    2309             USING   0
                    2310                             ; SOURCE LINE # 6
                    2311     ;---- Variable 'useconds?2085' assigned to Register 'R6/R7' ----
                    2312                             ; SOURCE LINE # 7
                    2313                             ; SOURCE LINE # 9
                    2314     ;---- Variable 's?2086' assigned to Register 'R4/R5' ----
0000 E4             2315             CLR     A
0001 FD             2316             MOV     R5,A
0002 FC             2317             MOV     R4,A
0003                2318     ?C0084:
0003 C3             2319             CLR     C
0004 ED             2320             MOV     A,R5
0005 9F             2321             SUBB    A,R7
0006 EE             2322             MOV     A,R6
0007 6480           2323             XRL     A,#080H
0009 F8             2324             MOV     R0,A
000A EC             2325             MOV     A,R4
000B 6480           2326             XRL     A,#080H
000D 98             2327             SUBB    A,R0
000E 5007           2328             JNC     ?C0087
0010 0D             2329             INC     R5
0011 BD0001         2330             CJNE    R5,#00H,?C0232
0014 0C             2331             INC     R4
0015                2332     ?C0232:
0015 80EC           2333             SJMP    ?C0084
                    2334                             ; SOURCE LINE # 10
0017                2335     ?C0087:
0017 22             2336             RET     
                    2337     ; END OF _DS18_delay
                    2338     
                    2339     
----                2340             RSEG  ?PR?ow_reset?MAIN
0000                2341     ow_reset:
                    2342             USING   0
                    2343                             ; SOURCE LINE # 12
                    2344                             ; SOURCE LINE # 13
                    2345                             ; SOURCE LINE # 15
0000 C291           2346             CLR     DQ
                    2347                             ; SOURCE LINE # 16
0002 7F1D           2348             MOV     R7,#01DH
0004 7E00           2349             MOV     R6,#00H
0006 120000   F     2350             LCALL   _DS18_delay
                    2351                             ; SOURCE LINE # 17
0009 D291           2352             SETB    DQ
                    2353                             ; SOURCE LINE # 18
000B 7F03           2354             MOV     R7,#03H
000D 120000   F     2355             LCALL   _DS18_delay
                    2356                             ; SOURCE LINE # 19
0010 A291           2357             MOV     C,DQ
0012 E4             2358             CLR     A
0013 33             2359             RLC     A
                    2360     ;---- Variable 'presence?2187' assigned to Register 'R3' ----
0014 FB             2361             MOV     R3,A
                    2362                             ; SOURCE LINE # 20
0015 7F19           2363             MOV     R7,#019H
0017 120000   F     2364             LCALL   _DS18_delay
                    2365                             ; SOURCE LINE # 21
001A AF03           2366             MOV     R7,AR3
                    2367                             ; SOURCE LINE # 22
A51 MACRO ASSEMBLER  MAIN                                                                 12/19/2019 15:45:25 PAGE    37

001C 22             2368             RET     
                    2369     ; END OF ow_reset
                    2370     
                    2371     
----                2372             RSEG  ?PR?_write_bit?MAIN
0000                2373     _write_bit:
                    2374             USING   0
                    2375                             ; SOURCE LINE # 24
                    2376     ;---- Variable 'bitval?2288' assigned to Register 'R7' ----
                    2377                             ; SOURCE LINE # 25
                    2378                             ; SOURCE LINE # 26
0000 C291           2379             CLR     DQ
                    2380                             ; SOURCE LINE # 27
0002 EF             2381             MOV     A,R7
0003 33             2382             RLC     A
0004 95E0           2383             SUBB    A,ACC
0006 FE             2384             MOV     R6,A
0007 EF             2385             MOV     A,R7
0008 6401           2386             XRL     A,#01H
000A 4E             2387             ORL     A,R6
000B 7002           2388             JNZ     ?C0089
000D D291           2389             SETB    DQ
000F                2390     ?C0089:
                    2391                             ; SOURCE LINE # 28
000F 7F05           2392             MOV     R7,#05H
0011 7E00           2393             MOV     R6,#00H
0013 120000   F     2394             LCALL   _DS18_delay
                    2395                             ; SOURCE LINE # 29
0016 D291           2396             SETB    DQ
                    2397                             ; SOURCE LINE # 30
0018 22             2398             RET     
                    2399     ; END OF _write_bit
                    2400     
                    2401     
----                2402             RSEG  ?PR?_ds18write_byte?MAIN
0000                2403     _ds18write_byte:
                    2404             USING   0
                    2405                             ; SOURCE LINE # 32
                    2406     ;---- Variable 'val?2389' assigned to Register 'R3' ----
0000 AB07           2407             MOV     R3,AR7
                    2408                             ; SOURCE LINE # 33
                    2409                             ; SOURCE LINE # 36
                    2410     ;---- Variable 'i?2390' assigned to Register 'R2' ----
0002 E4             2411             CLR     A
0003 FA             2412             MOV     R2,A
0004                2413     ?C0091:
0004 EA             2414             MOV     A,R2
0005 C3             2415             CLR     C
0006 9408           2416             SUBB    A,#08H
0008 7480           2417             MOV     A,#080H
000A 9480           2418             SUBB    A,#080H
000C 500F           2419             JNC     ?C0092
                    2420                             ; SOURCE LINE # 37
                    2421                             ; SOURCE LINE # 38
000E EB             2422             MOV     A,R3
000F 5401           2423             ANL     A,#01H
                    2424     ;---- Variable 't?2391' assigned to Register 'R1' ----
                    2425                             ; SOURCE LINE # 39
0011 FF             2426             MOV     R7,A
0012 120000   F     2427             LCALL   _write_bit
                    2428                             ; SOURCE LINE # 40
0015 EB             2429             MOV     A,R3
0016 A2E7           2430             MOV     C,ACC.7
0018 13             2431             RRC     A
0019 FB             2432             MOV     R3,A
                    2433                             ; SOURCE LINE # 41
A51 MACRO ASSEMBLER  MAIN                                                                 12/19/2019 15:45:25 PAGE    38

001A 0A             2434             INC     R2
001B 80E7           2435             SJMP    ?C0091
001D                2436     ?C0092:
                    2437                             ; SOURCE LINE # 42
001D 7F05           2438             MOV     R7,#05H
001F 7E00           2439             MOV     R6,#00H
0021 020000   F     2440             LJMP    _DS18_delay
                    2441     ; END OF _ds18write_byte
                    2442     
                    2443     
----                2444             RSEG  ?PR?read_bit?MAIN
0000                2445     read_bit:
                    2446             USING   0
                    2447                             ; SOURCE LINE # 45
                    2448                             ; SOURCE LINE # 46
                    2449                             ; SOURCE LINE # 48
0000 C291           2450             CLR     DQ
                    2451                             ; SOURCE LINE # 49
0002 D291           2452             SETB    DQ
                    2453                             ; SOURCE LINE # 50
                    2454     ;---- Variable 'i?2492' assigned to Register 'R7' ----
0004 E4             2455             CLR     A
0005 FF             2456             MOV     R7,A
0006                2457     ?C0095:
0006 EF             2458             MOV     A,R7
0007 C3             2459             CLR     C
0008 9403           2460             SUBB    A,#03H
000A 7480           2461             MOV     A,#080H
000C 9480           2462             SUBB    A,#080H
000E 5003           2463             JNC     ?C0096
0010 0F             2464             INC     R7
0011 80F3           2465             SJMP    ?C0095
0013                2466     ?C0096:
                    2467                             ; SOURCE LINE # 51
0013 A291           2468             MOV     C,DQ
0015 E4             2469             CLR     A
0016 33             2470             RLC     A
0017 FF             2471             MOV     R7,A
                    2472                             ; SOURCE LINE # 52
0018 22             2473             RET     
                    2474     ; END OF read_bit
                    2475     
                    2476     
----                2477             RSEG  ?PR?DSread_byte?MAIN
0000                2478     DSread_byte:
                    2479             USING   0
                    2480                             ; SOURCE LINE # 54
                    2481                             ; SOURCE LINE # 55
                    2482                             ; SOURCE LINE # 57
                    2483     ;---- Variable 'value?2594' assigned to Register 'R3' ----
0000 E4             2484             CLR     A
0001 FB             2485             MOV     R3,A
                    2486                             ; SOURCE LINE # 58
                    2487     ;---- Variable 'i?2593' assigned to Register 'R2' ----
0002 FA             2488             MOV     R2,A
0003                2489     ?C0099:
0003 EA             2490             MOV     A,R2
0004 C3             2491             CLR     C
0005 9408           2492             SUBB    A,#08H
0007 7480           2493             MOV     A,#080H
0009 9480           2494             SUBB    A,#080H
000B 501D           2495             JNC     ?C0100
                    2496                             ; SOURCE LINE # 59
                    2497                             ; SOURCE LINE # 60
000D 120000   F     2498             LCALL   read_bit
0010 EF             2499             MOV     A,R7
A51 MACRO ASSEMBLER  MAIN                                                                 12/19/2019 15:45:25 PAGE    39

0011 600D           2500             JZ      ?C0102
                    2501                             ; SOURCE LINE # 61
0013 A802           2502             MOV     R0,AR2
0015 7401           2503             MOV     A,#01H
0017 08             2504             INC     R0
0018 8002           2505             SJMP    ?C0234
001A                2506     ?C0233:
001A C3             2507             CLR     C
001B 33             2508             RLC     A
001C                2509     ?C0234:
001C D8FC           2510             DJNZ    R0,?C0233
001E 4203           2511             ORL     AR3,A
0020                2512     ?C0102:
                    2513                             ; SOURCE LINE # 62
0020 7F06           2514             MOV     R7,#06H
0022 7E00           2515             MOV     R6,#00H
0024 120000   F     2516             LCALL   _DS18_delay
                    2517                             ; SOURCE LINE # 63
0027 0A             2518             INC     R2
0028 80D9           2519             SJMP    ?C0099
002A                2520     ?C0100:
                    2521                             ; SOURCE LINE # 64
002A AF03           2522             MOV     R7,AR3
                    2523                             ; SOURCE LINE # 65
002C 22             2524             RET     
                    2525     ; END OF DSread_byte
                    2526     
                    2527     
----                2528             RSEG  ?PR?ReadTemperature?MAIN
0000                2529     ReadTemperature:
                    2530             USING   0
                    2531                             ; SOURCE LINE # 67
                    2532                             ; SOURCE LINE # 68
                    2533                             ; SOURCE LINE # 73
0000 120000   F     2534             LCALL   ow_reset
                    2535                             ; SOURCE LINE # 74
0003 7FCC           2536             MOV     R7,#0CCH
0005 120000   F     2537             LCALL   _ds18write_byte
                    2538                             ; SOURCE LINE # 75
0008 7F44           2539             MOV     R7,#044H
000A 120000   F     2540             LCALL   _ds18write_byte
                    2541                             ; SOURCE LINE # 76
000D 7F05           2542             MOV     R7,#05H
000F 7E00           2543             MOV     R6,#00H
0011 120000   F     2544             LCALL   _DS18_delay
                    2545                             ; SOURCE LINE # 77
0014 120000   F     2546             LCALL   ow_reset
                    2547                             ; SOURCE LINE # 78
0017 7FCC           2548             MOV     R7,#0CCH
0019 120000   F     2549             LCALL   _ds18write_byte
                    2550                             ; SOURCE LINE # 79
001C 7FBE           2551             MOV     R7,#0BEH
001E 120000   F     2552             LCALL   _ds18write_byte
                    2553                             ; SOURCE LINE # 80
                    2554     ;---- Variable 'k?2699' assigned to Register 'R1' ----
0021 E4             2555             CLR     A
0022 F9             2556             MOV     R1,A
0023                2557     ?C0104:
0023 E9             2558             MOV     A,R1
0024 C3             2559             CLR     C
0025 9402           2560             SUBB    A,#02H
0027 7480           2561             MOV     A,#080H
0029 9480           2562             SUBB    A,#080H
002B 500C           2563             JNC     ?C0105
                    2564                             ; SOURCE LINE # 81
002D 120000   F     2565             LCALL   DSread_byte
A51 MACRO ASSEMBLER  MAIN                                                                 12/19/2019 15:45:25 PAGE    40

0030 7400     F     2566             MOV     A,#LOW (get?2695)
0032 29             2567             ADD     A,R1
0033 F8             2568             MOV     R0,A
0034 A607           2569             MOV     @R0,AR7
0036 09             2570             INC     R1
0037 80EA           2571             SJMP    ?C0104
0039                2572     ?C0105:
                    2573                             ; SOURCE LINE # 83
                    2574     ;---- Variable 'temp_msb?2696' assigned to Register 'R7' ----
                    2575                             ; SOURCE LINE # 84
                    2576     ;---- Variable 'temp_lsb?2697' assigned to Register 'R5' ----
                    2577                             ; SOURCE LINE # 85
0039 E500     F     2578             MOV     A,get?2695+01H
003B FE             2579             MOV     R6,A
003C 7C00           2580             MOV     R4,#00H
003E E4             2581             CLR     A
003F 2500     F     2582             ADD     A,get?2695
0041 FF             2583             MOV     R7,A
0042 EC             2584             MOV     A,R4
0043 3E             2585             ADDC    A,R6
0044 FE             2586             MOV     R6,A
                    2587     ;---- Variable 't?2698' assigned to Register 'R6/R7' ----
                    2588                             ; SOURCE LINE # 86
0045 5307F0         2589             ANL     AR7,#0F0H
0048 53060F         2590             ANL     AR6,#0FH
                    2591                             ; SOURCE LINE # 87
004B C3             2592             CLR     C
004C EF             2593             MOV     A,R7
004D 94FF           2594             SUBB    A,#0FFH
004F EE             2595             MOV     A,R6
0050 9400           2596             SUBB    A,#00H
0052 500F           2597             JNC     ?C0107
0054 EF             2598             MOV     A,R7
0055 94F0           2599             SUBB    A,#0F0H
0057 EE             2600             MOV     A,R6
0058 9400           2601             SUBB    A,#00H
005A 4007           2602             JC      ?C0107
                    2603                             ; SOURCE LINE # 88
005C 7CFF           2604             MOV     R4,#0FFH
005E 7DFF           2605             MOV     R5,#0FFH
0060 120000   F     2606             LCALL   ?C?IMUL
0063                2607     ?C0107:
                    2608                             ; SOURCE LINE # 89
0063 EE             2609             MOV     A,R6
0064 C4             2610             SWAP    A
0065 F8             2611             MOV     R0,A
0066 54F0           2612             ANL     A,#0F0H
0068 C8             2613             XCH     A,R0
0069 68             2614             XRL     A,R0
006A FE             2615             MOV     R6,A
006B EF             2616             MOV     A,R7
006C C4             2617             SWAP    A
006D 540F           2618             ANL     A,#0FH
006F 48             2619             ORL     A,R0
0070 FF             2620             MOV     R7,A
                    2621                             ; SOURCE LINE # 90
0071 22             2622             RET     
                    2623     ; END OF ReadTemperature
                    2624     
                    2625     
----                2626             RSEG  ?PR?show_first_word?MAIN
0000                2627     show_first_word:
                    2628             USING   0
                    2629                             ; SOURCE LINE # 27
                    2630                             ; SOURCE LINE # 29
0000 7500FF   F     2631             MOV     ?_show_font_16?BYTE+03H,#0FFH
A51 MACRO ASSEMBLER  MAIN                                                                 12/19/2019 15:45:25 PAGE    41

0003 750000   F     2632             MOV     ?_show_font_16?BYTE+04H,#HIGH (HanZi_16)
0006 750000   F     2633             MOV     ?_show_font_16?BYTE+05H,#LOW (HanZi_16)
0009 7B03           2634             MOV     R3,#03H
000B 7D20           2635             MOV     R5,#020H
000D 7F01           2636             MOV     R7,#01H
000F 120000   F     2637             LCALL   _show_font_16
                    2638                             ; SOURCE LINE # 30
0012 7500FF   F     2639             MOV     ?_show_font_16?BYTE+03H,#0FFH
0015 750000   F     2640             MOV     ?_show_font_16?BYTE+04H,#HIGH (HanZi_16+020H)
0018 750000   F     2641             MOV     ?_show_font_16?BYTE+05H,#LOW (HanZi_16+020H)
001B 7B03           2642             MOV     R3,#03H
001D 7D30           2643             MOV     R5,#030H
001F 7F01           2644             MOV     R7,#01H
0021 120000   F     2645             LCALL   _show_font_16
                    2646                             ; SOURCE LINE # 31
0024 7500FF   F     2647             MOV     ?_show_font_16?BYTE+03H,#0FFH
0027 750000   F     2648             MOV     ?_show_font_16?BYTE+04H,#HIGH (HanZi_16+040H)
002A 750000   F     2649             MOV     ?_show_font_16?BYTE+05H,#LOW (HanZi_16+040H)
002D 7B03           2650             MOV     R3,#03H
002F E4             2651             CLR     A
0030 FD             2652             MOV     R5,A
0031 7F02           2653             MOV     R7,#02H
0033 120000   F     2654             LCALL   _show_font_16
                    2655                             ; SOURCE LINE # 32
0036 7500FF   F     2656             MOV     ?_show_font_16?BYTE+03H,#0FFH
0039 750000   F     2657             MOV     ?_show_font_16?BYTE+04H,#HIGH (HanZi_16+060H)
003C 750000   F     2658             MOV     ?_show_font_16?BYTE+05H,#LOW (HanZi_16+060H)
003F 7B03           2659             MOV     R3,#03H
0041 7D10           2660             MOV     R5,#010H
0043 7F02           2661             MOV     R7,#02H
0045 120000   F     2662             LCALL   _show_font_16
                    2663                             ; SOURCE LINE # 33
0048 7FC4           2664             MOV     R7,#0C4H
004A 7E09           2665             MOV     R6,#09H
004C 120000   F     2666             LCALL   _dely_ms
                    2667                             ; SOURCE LINE # 34
004F 7F03           2668             MOV     R7,#03H
0051 020000   F     2669             LJMP    _cls_disy
                    2670     ; END OF show_first_word
                    2671     
                    2672     
----                2673             RSEG  ?PR?show_time?MAIN
0000                2674     show_time:
                    2675             USING   0
                    2676                             ; SOURCE LINE # 38
                    2677                             ; SOURCE LINE # 42
0000 850000   F     2678             MOV     buf?28100,res
                    2679                             ; SOURCE LINE # 43
0003 E500     F     2680             MOV     A,buf?28100
0005 75F00A         2681             MOV     B,#0AH
0008 84             2682             DIV     AB
0009 E5F0           2683             MOV     A,B
000B 75F010         2684             MOV     B,#010H
000E A4             2685             MUL     AB
000F 2400     F     2686             ADD     A,#LOW (NUM)
0011 F9             2687             MOV     R1,A
0012 7400     F     2688             MOV     A,#HIGH (NUM)
0014 35F0           2689             ADDC    A,B
0016 7500FF   F     2690             MOV     ?_show_font_8?BYTE+03H,#0FFH
0019 F500     F     2691             MOV     ?_show_font_8?BYTE+04H,A
001B 8900     F     2692             MOV     ?_show_font_8?BYTE+05H,R1
001D 7D08           2693             MOV     R5,#08H
001F 120000   F     2694             LCALL   L?0251
                    2695                             ; SOURCE LINE # 44
0022 E500     F     2696             MOV     A,buf?28100
0024 75F00A         2697             MOV     B,#0AH
A51 MACRO ASSEMBLER  MAIN                                                                 12/19/2019 15:45:25 PAGE    42

0027 84             2698             DIV     AB
0028 F500     F     2699             MOV     buf?28100,A
                    2700                             ; SOURCE LINE # 45
002A 75F00A         2701             MOV     B,#0AH
002D 84             2702             DIV     AB
002E E5F0           2703             MOV     A,B
0030 75F010         2704             MOV     B,#010H
0033 A4             2705             MUL     AB
0034 2400     F     2706             ADD     A,#LOW (NUM)
0036 F9             2707             MOV     R1,A
0037 7400     F     2708             MOV     A,#HIGH (NUM)
0039 35F0           2709             ADDC    A,B
003B 7500FF   F     2710             MOV     ?_show_font_8?BYTE+03H,#0FFH
003E F500     F     2711             MOV     ?_show_font_8?BYTE+04H,A
0040 8900     F     2712             MOV     ?_show_font_8?BYTE+05H,R1
0042 E4             2713             CLR     A
0043 FB             2714             MOV     R3,A
0044 FD             2715             MOV     R5,A
0045 7F01           2716             MOV     R7,#01H
0047 120000   F     2717             LCALL   _show_font_8
                    2718                             ; SOURCE LINE # 47
004A 7500FF   F     2719             MOV     ?_show_font_8?BYTE+03H,#0FFH
004D 750000   F     2720             MOV     ?_show_font_8?BYTE+04H,#HIGH (Sing+010H)
0050 750000   F     2721             MOV     ?_show_font_8?BYTE+05H,#LOW (Sing+010H)
0053 E4             2722             CLR     A
0054 FB             2723             MOV     R3,A
0055 7D10           2724             MOV     R5,#010H
0057 7F01           2725             MOV     R7,#01H
0059 120000   F     2726             LCALL   _show_font_8
                    2727                             ; SOURCE LINE # 49
005C 850000   F     2728             MOV     buf?28100,res+02H
                    2729                             ; SOURCE LINE # 50
005F E500     F     2730             MOV     A,buf?28100
0061 75F00A         2731             MOV     B,#0AH
0064 84             2732             DIV     AB
0065 E5F0           2733             MOV     A,B
0067 75F010         2734             MOV     B,#010H
006A A4             2735             MUL     AB
006B 2400     F     2736             ADD     A,#LOW (NUM)
006D F9             2737             MOV     R1,A
006E 7400     F     2738             MOV     A,#HIGH (NUM)
0070 35F0           2739             ADDC    A,B
0072 7500FF   F     2740             MOV     ?_show_font_8?BYTE+03H,#0FFH
0075 F500     F     2741             MOV     ?_show_font_8?BYTE+04H,A
0077 8900     F     2742             MOV     ?_show_font_8?BYTE+05H,R1
0079 E4             2743             CLR     A
007A FB             2744             MOV     R3,A
007B 7D20           2745             MOV     R5,#020H
007D 7F01           2746             MOV     R7,#01H
007F 120000   F     2747             LCALL   _show_font_8
                    2748                             ; SOURCE LINE # 51
0082 E500     F     2749             MOV     A,buf?28100
0084 75F00A         2750             MOV     B,#0AH
0087 84             2751             DIV     AB
0088 F500     F     2752             MOV     buf?28100,A
                    2753                             ; SOURCE LINE # 52
008A 75F00A         2754             MOV     B,#0AH
008D 84             2755             DIV     AB
008E E5F0           2756             MOV     A,B
0090 75F010         2757             MOV     B,#010H
0093 A4             2758             MUL     AB
0094 2400     F     2759             ADD     A,#LOW (NUM)
0096 F9             2760             MOV     R1,A
0097 7400     F     2761             MOV     A,#HIGH (NUM)
0099 35F0           2762             ADDC    A,B
009B 7500FF   F     2763             MOV     ?_show_font_8?BYTE+03H,#0FFH
A51 MACRO ASSEMBLER  MAIN                                                                 12/19/2019 15:45:25 PAGE    43

009E F500     F     2764             MOV     ?_show_font_8?BYTE+04H,A
00A0 8900     F     2765             MOV     ?_show_font_8?BYTE+05H,R1
00A2 E4             2766             CLR     A
00A3 FB             2767             MOV     R3,A
00A4 7D18           2768             MOV     R5,#018H
00A6 7F01           2769             MOV     R7,#01H
00A8 120000   F     2770             LCALL   _show_font_8
                    2771                             ; SOURCE LINE # 54
00AB 7500FF   F     2772             MOV     ?_show_font_8?BYTE+03H,#0FFH
00AE 750000   F     2773             MOV     ?_show_font_8?BYTE+04H,#HIGH (Sing+010H)
00B1 750000   F     2774             MOV     ?_show_font_8?BYTE+05H,#LOW (Sing+010H)
00B4 7D28           2775             MOV     R5,#028H
00B6 120000   F     2776             LCALL   L?0251
                    2777                             ; SOURCE LINE # 57
00B9 850000   F     2778             MOV     buf?28100,res+03H
                    2779                             ; SOURCE LINE # 58
00BC E500     F     2780             MOV     A,buf?28100
00BE 75F00A         2781             MOV     B,#0AH
00C1 84             2782             DIV     AB
00C2 E5F0           2783             MOV     A,B
00C4 75F010         2784             MOV     B,#010H
00C7 A4             2785             MUL     AB
00C8 2400     F     2786             ADD     A,#LOW (NUM)
00CA F9             2787             MOV     R1,A
00CB 7400     F     2788             MOV     A,#HIGH (NUM)
00CD 35F0           2789             ADDC    A,B
00CF 7500FF   F     2790             MOV     ?_show_font_8?BYTE+03H,#0FFH
00D2 F500     F     2791             MOV     ?_show_font_8?BYTE+04H,A
00D4 8900     F     2792             MOV     ?_show_font_8?BYTE+05H,R1
00D6 E4             2793             CLR     A
00D7 FB             2794             MOV     R3,A
00D8 7D38           2795             MOV     R5,#038H
00DA 7F01           2796             MOV     R7,#01H
00DC 120000   F     2797             LCALL   _show_font_8
                    2798                             ; SOURCE LINE # 59
00DF E500     F     2799             MOV     A,buf?28100
00E1 75F00A         2800             MOV     B,#0AH
00E4 84             2801             DIV     AB
00E5 F500     F     2802             MOV     buf?28100,A
                    2803                             ; SOURCE LINE # 60
00E7 75F00A         2804             MOV     B,#0AH
00EA 84             2805             DIV     AB
00EB E5F0           2806             MOV     A,B
00ED 75F010         2807             MOV     B,#010H
00F0 A4             2808             MUL     AB
00F1 2400     F     2809             ADD     A,#LOW (NUM)
00F3 F9             2810             MOV     R1,A
00F4 7400     F     2811             MOV     A,#HIGH (NUM)
00F6 35F0           2812             ADDC    A,B
00F8 7500FF   F     2813             MOV     ?_show_font_8?BYTE+03H,#0FFH
00FB F500     F     2814             MOV     ?_show_font_8?BYTE+04H,A
00FD 8900     F     2815             MOV     ?_show_font_8?BYTE+05H,R1
00FF E4             2816             CLR     A
0100 FB             2817             MOV     R3,A
0101 7D30           2818             MOV     R5,#030H
0103 7F01           2819             MOV     R7,#01H
0105 120000   F     2820             LCALL   _show_font_8
                    2821                             ; SOURCE LINE # 64
0108 850000   F     2822             MOV     buf?28100,res+04H
                    2823                             ; SOURCE LINE # 65
010B E500     F     2824             MOV     A,buf?28100
010D 75F00A         2825             MOV     B,#0AH
0110 84             2826             DIV     AB
0111 E5F0           2827             MOV     A,B
0113 75F010         2828             MOV     B,#010H
0116 A4             2829             MUL     AB
A51 MACRO ASSEMBLER  MAIN                                                                 12/19/2019 15:45:25 PAGE    44

0117 2400     F     2830             ADD     A,#LOW (NUM)
0119 F9             2831             MOV     R1,A
011A 7400     F     2832             MOV     A,#HIGH (NUM)
011C 35F0           2833             ADDC    A,B
011E 7500FF   F     2834             MOV     ?_show_font_8?BYTE+03H,#0FFH
0121 F500     F     2835             MOV     ?_show_font_8?BYTE+04H,A
0123 8900     F     2836             MOV     ?_show_font_8?BYTE+05H,R1
0125 7B02           2837             MOV     R3,#02H
0127 7D08           2838             MOV     R5,#08H
0129 7F01           2839             MOV     R7,#01H
012B 120000   F     2840             LCALL   _show_font_8
                    2841                             ; SOURCE LINE # 66
012E E500     F     2842             MOV     A,buf?28100
0130 75F00A         2843             MOV     B,#0AH
0133 84             2844             DIV     AB
0134 F500     F     2845             MOV     buf?28100,A
                    2846                             ; SOURCE LINE # 67
0136 75F00A         2847             MOV     B,#0AH
0139 84             2848             DIV     AB
013A E5F0           2849             MOV     A,B
013C 75F010         2850             MOV     B,#010H
013F A4             2851             MUL     AB
0140 2400     F     2852             ADD     A,#LOW (NUM)
0142 F9             2853             MOV     R1,A
0143 7400     F     2854             MOV     A,#HIGH (NUM)
0145 35F0           2855             ADDC    A,B
0147 7500FF   F     2856             MOV     ?_show_font_8?BYTE+03H,#0FFH
014A F500     F     2857             MOV     ?_show_font_8?BYTE+04H,A
014C 8900     F     2858             MOV     ?_show_font_8?BYTE+05H,R1
014E 7B02           2859             MOV     R3,#02H
0150 E4             2860             CLR     A
0151 FD             2861             MOV     R5,A
0152 7F01           2862             MOV     R7,#01H
0154 120000   F     2863             LCALL   _show_font_8
                    2864                             ; SOURCE LINE # 69
0157 7500FF   F     2865             MOV     ?_show_font_8?BYTE+03H,#0FFH
015A 750000   F     2866             MOV     ?_show_font_8?BYTE+04H,#HIGH (Sing)
015D 750000   F     2867             MOV     ?_show_font_8?BYTE+05H,#LOW (Sing)
0160 7B02           2868             MOV     R3,#02H
0162 7D10           2869             MOV     R5,#010H
0164 7F01           2870             MOV     R7,#01H
0166 120000   F     2871             LCALL   _show_font_8
                    2872                             ; SOURCE LINE # 71
0169 850000   F     2873             MOV     buf?28100,res+05H
                    2874                             ; SOURCE LINE # 72
016C E500     F     2875             MOV     A,buf?28100
016E 75F00A         2876             MOV     B,#0AH
0171 84             2877             DIV     AB
0172 E5F0           2878             MOV     A,B
0174 75F010         2879             MOV     B,#010H
0177 A4             2880             MUL     AB
0178 2400     F     2881             ADD     A,#LOW (NUM)
017A F9             2882             MOV     R1,A
017B 7400     F     2883             MOV     A,#HIGH (NUM)
017D 35F0           2884             ADDC    A,B
017F 7500FF   F     2885             MOV     ?_show_font_8?BYTE+03H,#0FFH
0182 F500     F     2886             MOV     ?_show_font_8?BYTE+04H,A
0184 8900     F     2887             MOV     ?_show_font_8?BYTE+05H,R1
0186 7B02           2888             MOV     R3,#02H
0188 7D20           2889             MOV     R5,#020H
018A 7F01           2890             MOV     R7,#01H
018C 120000   F     2891             LCALL   _show_font_8
                    2892                             ; SOURCE LINE # 73
018F E500     F     2893             MOV     A,buf?28100
0191 75F00A         2894             MOV     B,#0AH
0194 84             2895             DIV     AB
A51 MACRO ASSEMBLER  MAIN                                                                 12/19/2019 15:45:25 PAGE    45

0195 F500     F     2896             MOV     buf?28100,A
                    2897                             ; SOURCE LINE # 74
0197 75F00A         2898             MOV     B,#0AH
019A 84             2899             DIV     AB
019B E5F0           2900             MOV     A,B
019D 75F010         2901             MOV     B,#010H
01A0 A4             2902             MUL     AB
01A1 2400     F     2903             ADD     A,#LOW (NUM)
01A3 F9             2904             MOV     R1,A
01A4 7400     F     2905             MOV     A,#HIGH (NUM)
01A6 35F0           2906             ADDC    A,B
01A8 7500FF   F     2907             MOV     ?_show_font_8?BYTE+03H,#0FFH
01AB F500     F     2908             MOV     ?_show_font_8?BYTE+04H,A
01AD 8900     F     2909             MOV     ?_show_font_8?BYTE+05H,R1
01AF 7B02           2910             MOV     R3,#02H
01B1 7D18           2911             MOV     R5,#018H
01B3 7F01           2912             MOV     R7,#01H
01B5 120000   F     2913             LCALL   _show_font_8
                    2914                             ; SOURCE LINE # 76
01B8 7500FF   F     2915             MOV     ?_show_font_8?BYTE+03H,#0FFH
01BB 750000   F     2916             MOV     ?_show_font_8?BYTE+04H,#HIGH (Sing)
01BE 750000   F     2917             MOV     ?_show_font_8?BYTE+05H,#LOW (Sing)
01C1 7B02           2918             MOV     R3,#02H
01C3 7D28           2919             MOV     R5,#028H
01C5 7F01           2920             MOV     R7,#01H
01C7 120000   F     2921             LCALL   _show_font_8
                    2922                             ; SOURCE LINE # 79
01CA 850000   F     2923             MOV     buf?28100,res+06H
                    2924                             ; SOURCE LINE # 80
01CD E500     F     2925             MOV     A,buf?28100
01CF 75F00A         2926             MOV     B,#0AH
01D2 84             2927             DIV     AB
01D3 E5F0           2928             MOV     A,B
01D5 75F010         2929             MOV     B,#010H
01D8 A4             2930             MUL     AB
01D9 2400     F     2931             ADD     A,#LOW (NUM)
01DB F9             2932             MOV     R1,A
01DC 7400     F     2933             MOV     A,#HIGH (NUM)
01DE 35F0           2934             ADDC    A,B
01E0 7500FF   F     2935             MOV     ?_show_font_8?BYTE+03H,#0FFH
01E3 F500     F     2936             MOV     ?_show_font_8?BYTE+04H,A
01E5 8900     F     2937             MOV     ?_show_font_8?BYTE+05H,R1
01E7 7B02           2938             MOV     R3,#02H
01E9 7D38           2939             MOV     R5,#038H
01EB 7F01           2940             MOV     R7,#01H
01ED 120000   F     2941             LCALL   _show_font_8
                    2942                             ; SOURCE LINE # 81
01F0 E500     F     2943             MOV     A,buf?28100
01F2 75F00A         2944             MOV     B,#0AH
01F5 84             2945             DIV     AB
01F6 F500     F     2946             MOV     buf?28100,A
                    2947                             ; SOURCE LINE # 82
01F8 75F00A         2948             MOV     B,#0AH
01FB 84             2949             DIV     AB
01FC E5F0           2950             MOV     A,B
01FE 75F010         2951             MOV     B,#010H
0201 A4             2952             MUL     AB
0202 2400     F     2953             ADD     A,#LOW (NUM)
0204 F9             2954             MOV     R1,A
0205 7400     F     2955             MOV     A,#HIGH (NUM)
0207 35F0           2956             ADDC    A,B
0209 7500FF   F     2957             MOV     ?_show_font_8?BYTE+03H,#0FFH
020C F500     F     2958             MOV     ?_show_font_8?BYTE+04H,A
020E 8900     F     2959             MOV     ?_show_font_8?BYTE+05H,R1
0210 7B02           2960             MOV     R3,#02H
0212 7D30           2961             MOV     R5,#030H
A51 MACRO ASSEMBLER  MAIN                                                                 12/19/2019 15:45:25 PAGE    46

0214 7F01           2962             MOV     R7,#01H
0216 120000   F     2963             LCALL   _show_font_8
                    2964                             ; SOURCE LINE # 85
0219 850000   F     2965             MOV     buf?28100,res+01H
                    2966                             ; SOURCE LINE # 86
021C 7500FF   F     2967             MOV     ?_show_font_16?BYTE+03H,#0FFH
021F 750000   F     2968             MOV     ?_show_font_16?BYTE+04H,#HIGH (HanZi_16+080H)
0222 750000   F     2969             MOV     ?_show_font_16?BYTE+05H,#LOW (HanZi_16+080H)
0225 7B04           2970             MOV     R3,#04H
0227 E4             2971             CLR     A
0228 FD             2972             MOV     R5,A
0229 7F01           2973             MOV     R7,#01H
022B 120000   F     2974             LCALL   _show_font_16
                    2975                             ; SOURCE LINE # 87
022E 7500FF   F     2976             MOV     ?_show_font_16?BYTE+03H,#0FFH
0231 750000   F     2977             MOV     ?_show_font_16?BYTE+04H,#HIGH (HanZi_16+0A0H)
0234 750000   F     2978             MOV     ?_show_font_16?BYTE+05H,#LOW (HanZi_16+0A0H)
0237 7B04           2979             MOV     R3,#04H
0239 120000   F     2980             LCALL   L?0255
                    2981                             ; SOURCE LINE # 88
023C E500     F     2982             MOV     A,buf?28100
023E 75F020         2983             MOV     B,#020H
0241 A4             2984             MUL     AB
0242 2400     F     2985             ADD     A,#LOW (HZ_Num)
0244 F9             2986             MOV     R1,A
0245 7400     F     2987             MOV     A,#HIGH (HZ_Num)
0247 35F0           2988             ADDC    A,B
0249 7500FF   F     2989             MOV     ?_show_font_16?BYTE+03H,#0FFH
024C F500     F     2990             MOV     ?_show_font_16?BYTE+04H,A
024E 8900     F     2991             MOV     ?_show_font_16?BYTE+05H,R1
0250 7B04           2992             MOV     R3,#04H
0252 7D20           2993             MOV     R5,#020H
0254 7F01           2994             MOV     R7,#01H
0256 020000   F     2995             LJMP    _show_font_16
                    2996     ; END OF show_time
                    2997     
                    2998     
----                2999             RSEG  ?PR?show_del?MAIN
0000                3000     show_del:
                    3001             USING   0
                    3002                             ; SOURCE LINE # 91
                    3003                             ; SOURCE LINE # 95
0000 850000   F     3004             MOV     buf?29101,cla_
                    3005                             ; SOURCE LINE # 96
0003 E500     F     3006             MOV     A,buf?29101
0005 75F00A         3007             MOV     B,#0AH
0008 84             3008             DIV     AB
0009 E5F0           3009             MOV     A,B
000B 75F010         3010             MOV     B,#010H
000E A4             3011             MUL     AB
000F 2400     F     3012             ADD     A,#LOW (NUM)
0011 F9             3013             MOV     R1,A
0012 7400     F     3014             MOV     A,#HIGH (NUM)
0014 35F0           3015             ADDC    A,B
0016 7500FF   F     3016             MOV     ?_show_font_8f?BYTE+03H,#0FFH
0019 F500     F     3017             MOV     ?_show_font_8f?BYTE+04H,A
001B 8900     F     3018             MOV     ?_show_font_8f?BYTE+05H,R1
001D E500     F     3019             MOV     A,X_POI
001F 7008           3020             JNZ     ?C0111
0021 E500     F     3021             MOV     A,Y_POI
0023 7004           3022             JNZ     ?C0111
0025 7F01           3023             MOV     R7,#01H
0027 8002           3024             SJMP    ?C0112
0029                3025     ?C0111:
0029 7F00           3026             MOV     R7,#00H
002B                3027     ?C0112:
A51 MACRO ASSEMBLER  MAIN                                                                 12/19/2019 15:45:25 PAGE    47

002B 8F00     F     3028             MOV     ?_show_font_8f?BYTE+06H,R7
002D 7D08           3029             MOV     R5,#08H
002F 120000   F     3030             LCALL   L?0254
                    3031                             ; SOURCE LINE # 97
0032 E500     F     3032             MOV     A,buf?29101
0034 75F00A         3033             MOV     B,#0AH
0037 84             3034             DIV     AB
0038 F500     F     3035             MOV     buf?29101,A
                    3036                             ; SOURCE LINE # 98
003A 75F00A         3037             MOV     B,#0AH
003D 84             3038             DIV     AB
003E E5F0           3039             MOV     A,B
0040 75F010         3040             MOV     B,#010H
0043 A4             3041             MUL     AB
0044 2400     F     3042             ADD     A,#LOW (NUM)
0046 F9             3043             MOV     R1,A
0047 7400     F     3044             MOV     A,#HIGH (NUM)
0049 35F0           3045             ADDC    A,B
004B 7500FF   F     3046             MOV     ?_show_font_8f?BYTE+03H,#0FFH
004E F500     F     3047             MOV     ?_show_font_8f?BYTE+04H,A
0050 8900     F     3048             MOV     ?_show_font_8f?BYTE+05H,R1
0052 E500     F     3049             MOV     A,X_POI
0054 7008           3050             JNZ     ?C0113
0056 E500     F     3051             MOV     A,Y_POI
0058 7004           3052             JNZ     ?C0113
005A 7F01           3053             MOV     R7,#01H
005C 8002           3054             SJMP    ?C0114
005E                3055     ?C0113:
005E 7F00           3056             MOV     R7,#00H
0060                3057     ?C0114:
0060 8F00     F     3058             MOV     ?_show_font_8f?BYTE+06H,R7
0062 E4             3059             CLR     A
0063 FB             3060             MOV     R3,A
0064 FD             3061             MOV     R5,A
0065 7F02           3062             MOV     R7,#02H
0067 120000   F     3063             LCALL   _show_font_8f
                    3064                             ; SOURCE LINE # 100
006A 7500FF   F     3065             MOV     ?_show_font_8?BYTE+03H,#0FFH
006D 750000   F     3066             MOV     ?_show_font_8?BYTE+04H,#HIGH (Sing)
0070 750000   F     3067             MOV     ?_show_font_8?BYTE+05H,#LOW (Sing)
0073 E4             3068             CLR     A
0074 FB             3069             MOV     R3,A
0075 7D10           3070             MOV     R5,#010H
0077 7F02           3071             MOV     R7,#02H
0079 120000   F     3072             LCALL   _show_font_8
                    3073                             ; SOURCE LINE # 102
007C 850000   F     3074             MOV     buf?29101,cla_+01H
                    3075                             ; SOURCE LINE # 103
007F E500     F     3076             MOV     A,buf?29101
0081 75F00A         3077             MOV     B,#0AH
0084 84             3078             DIV     AB
0085 E5F0           3079             MOV     A,B
0087 75F010         3080             MOV     B,#010H
008A A4             3081             MUL     AB
008B 2400     F     3082             ADD     A,#LOW (NUM)
008D F9             3083             MOV     R1,A
008E 7400     F     3084             MOV     A,#HIGH (NUM)
0090 35F0           3085             ADDC    A,B
0092 7500FF   F     3086             MOV     ?_show_font_8f?BYTE+03H,#0FFH
0095 F500     F     3087             MOV     ?_show_font_8f?BYTE+04H,A
0097 8900     F     3088             MOV     ?_show_font_8f?BYTE+05H,R1
0099 E500     F     3089             MOV     A,X_POI
009B 6401           3090             XRL     A,#01H
009D 7008           3091             JNZ     ?C0115
009F E500     F     3092             MOV     A,Y_POI
00A1 7004           3093             JNZ     ?C0115
A51 MACRO ASSEMBLER  MAIN                                                                 12/19/2019 15:45:25 PAGE    48

00A3 7F01           3094             MOV     R7,#01H
00A5 8002           3095             SJMP    ?C0116
00A7                3096     ?C0115:
00A7 7F00           3097             MOV     R7,#00H
00A9                3098     ?C0116:
00A9 8F00     F     3099             MOV     ?_show_font_8f?BYTE+06H,R7
00AB 7D20           3100             MOV     R5,#020H
00AD 120000   F     3101             LCALL   L?0254
                    3102                             ; SOURCE LINE # 104
00B0 E500     F     3103             MOV     A,buf?29101
00B2 75F00A         3104             MOV     B,#0AH
00B5 84             3105             DIV     AB
00B6 F500     F     3106             MOV     buf?29101,A
                    3107                             ; SOURCE LINE # 105
00B8 75F00A         3108             MOV     B,#0AH
00BB 84             3109             DIV     AB
00BC E5F0           3110             MOV     A,B
00BE 75F010         3111             MOV     B,#010H
00C1 A4             3112             MUL     AB
00C2 2400     F     3113             ADD     A,#LOW (NUM)
00C4 F9             3114             MOV     R1,A
00C5 7400     F     3115             MOV     A,#HIGH (NUM)
00C7 35F0           3116             ADDC    A,B
00C9 7500FF   F     3117             MOV     ?_show_font_8f?BYTE+03H,#0FFH
00CC F500     F     3118             MOV     ?_show_font_8f?BYTE+04H,A
00CE 8900     F     3119             MOV     ?_show_font_8f?BYTE+05H,R1
00D0 E500     F     3120             MOV     A,X_POI
00D2 6401           3121             XRL     A,#01H
00D4 7008           3122             JNZ     ?C0117
00D6 E500     F     3123             MOV     A,Y_POI
00D8 7004           3124             JNZ     ?C0117
00DA 7F01           3125             MOV     R7,#01H
00DC 8002           3126             SJMP    ?C0118
00DE                3127     ?C0117:
00DE 7F00           3128             MOV     R7,#00H
00E0                3129     ?C0118:
00E0 8F00     F     3130             MOV     ?_show_font_8f?BYTE+06H,R7
00E2 E4             3131             CLR     A
00E3 FB             3132             MOV     R3,A
00E4 7D18           3133             MOV     R5,#018H
00E6 7F02           3134             MOV     R7,#02H
00E8 120000   F     3135             LCALL   _show_font_8f
                    3136                             ; SOURCE LINE # 107
00EB 7500FF   F     3137             MOV     ?_show_font_8?BYTE+03H,#0FFH
00EE 750000   F     3138             MOV     ?_show_font_8?BYTE+04H,#HIGH (Sing)
00F1 750000   F     3139             MOV     ?_show_font_8?BYTE+05H,#LOW (Sing)
00F4 E4             3140             CLR     A
00F5 FB             3141             MOV     R3,A
00F6 7D28           3142             MOV     R5,#028H
00F8 7F02           3143             MOV     R7,#02H
00FA 120000   F     3144             LCALL   _show_font_8
                    3145                             ; SOURCE LINE # 110
00FD 850000   F     3146             MOV     buf?29101,cla_+02H
                    3147                             ; SOURCE LINE # 111
0100 E500     F     3148             MOV     A,buf?29101
0102 75F00A         3149             MOV     B,#0AH
0105 84             3150             DIV     AB
0106 E5F0           3151             MOV     A,B
0108 75F010         3152             MOV     B,#010H
010B A4             3153             MUL     AB
010C 2400     F     3154             ADD     A,#LOW (NUM)
010E F9             3155             MOV     R1,A
010F 7400     F     3156             MOV     A,#HIGH (NUM)
0111 35F0           3157             ADDC    A,B
0113 7500FF   F     3158             MOV     ?_show_font_8f?BYTE+03H,#0FFH
0116 F500     F     3159             MOV     ?_show_font_8f?BYTE+04H,A
A51 MACRO ASSEMBLER  MAIN                                                                 12/19/2019 15:45:25 PAGE    49

0118 8900     F     3160             MOV     ?_show_font_8f?BYTE+05H,R1
011A E500     F     3161             MOV     A,X_POI
011C 6402           3162             XRL     A,#02H
011E 7008           3163             JNZ     ?C0119
0120 E500     F     3164             MOV     A,Y_POI
0122 7004           3165             JNZ     ?C0119
0124 7F01           3166             MOV     R7,#01H
0126 8002           3167             SJMP    ?C0120
0128                3168     ?C0119:
0128 7F00           3169             MOV     R7,#00H
012A                3170     ?C0120:
012A 8F00     F     3171             MOV     ?_show_font_8f?BYTE+06H,R7
012C E4             3172             CLR     A
012D FB             3173             MOV     R3,A
012E 7D38           3174             MOV     R5,#038H
0130 7F02           3175             MOV     R7,#02H
0132 120000   F     3176             LCALL   _show_font_8f
                    3177                             ; SOURCE LINE # 112
0135 E500     F     3178             MOV     A,buf?29101
0137 75F00A         3179             MOV     B,#0AH
013A 84             3180             DIV     AB
013B F500     F     3181             MOV     buf?29101,A
                    3182                             ; SOURCE LINE # 113
013D 75F00A         3183             MOV     B,#0AH
0140 84             3184             DIV     AB
0141 E5F0           3185             MOV     A,B
0143 75F010         3186             MOV     B,#010H
0146 A4             3187             MUL     AB
0147 2400     F     3188             ADD     A,#LOW (NUM)
0149 F9             3189             MOV     R1,A
014A 7400     F     3190             MOV     A,#HIGH (NUM)
014C 35F0           3191             ADDC    A,B
014E 7500FF   F     3192             MOV     ?_show_font_8f?BYTE+03H,#0FFH
0151 F500     F     3193             MOV     ?_show_font_8f?BYTE+04H,A
0153 8900     F     3194             MOV     ?_show_font_8f?BYTE+05H,R1
0155 E500     F     3195             MOV     A,X_POI
0157 6402           3196             XRL     A,#02H
0159 7008           3197             JNZ     ?C0121
015B E500     F     3198             MOV     A,Y_POI
015D 7004           3199             JNZ     ?C0121
015F 7F01           3200             MOV     R7,#01H
0161 8002           3201             SJMP    ?C0122
0163                3202     ?C0121:
0163 7F00           3203             MOV     R7,#00H
0165                3204     ?C0122:
0165 8F00     F     3205             MOV     ?_show_font_8f?BYTE+06H,R7
0167 E4             3206             CLR     A
0168 FB             3207             MOV     R3,A
0169 7D30           3208             MOV     R5,#030H
016B 7F02           3209             MOV     R7,#02H
016D 120000   F     3210             LCALL   _show_font_8f
                    3211                             ; SOURCE LINE # 117
0170 850000   F     3212             MOV     buf?29101,cla_+03H
                    3213                             ; SOURCE LINE # 118
0173 E500     F     3214             MOV     A,buf?29101
0175 75F00A         3215             MOV     B,#0AH
0178 84             3216             DIV     AB
0179 E5F0           3217             MOV     A,B
017B 75F010         3218             MOV     B,#010H
017E A4             3219             MUL     AB
017F 2400     F     3220             ADD     A,#LOW (NUM)
0181 F9             3221             MOV     R1,A
0182 7400     F     3222             MOV     A,#HIGH (NUM)
0184 35F0           3223             ADDC    A,B
0186 7500FF   F     3224             MOV     ?_show_font_8f?BYTE+03H,#0FFH
0189 F500     F     3225             MOV     ?_show_font_8f?BYTE+04H,A
A51 MACRO ASSEMBLER  MAIN                                                                 12/19/2019 15:45:25 PAGE    50

018B 8900     F     3226             MOV     ?_show_font_8f?BYTE+05H,R1
018D E500     F     3227             MOV     A,X_POI
018F 700A           3228             JNZ     ?C0123
0191 E500     F     3229             MOV     A,Y_POI
0193 6401           3230             XRL     A,#01H
0195 7004           3231             JNZ     ?C0123
0197 7F01           3232             MOV     R7,#01H
0199 8002           3233             SJMP    ?C0124
019B                3234     ?C0123:
019B 7F00           3235             MOV     R7,#00H
019D                3236     ?C0124:
019D 8F00     F     3237             MOV     ?_show_font_8f?BYTE+06H,R7
019F 7B02           3238             MOV     R3,#02H
01A1 7D08           3239             MOV     R5,#08H
01A3 7F02           3240             MOV     R7,#02H
01A5 120000   F     3241             LCALL   _show_font_8f
                    3242                             ; SOURCE LINE # 119
01A8 E500     F     3243             MOV     A,buf?29101
01AA 75F00A         3244             MOV     B,#0AH
01AD 84             3245             DIV     AB
01AE F500     F     3246             MOV     buf?29101,A
                    3247                             ; SOURCE LINE # 120
01B0 75F00A         3248             MOV     B,#0AH
01B3 84             3249             DIV     AB
01B4 E5F0           3250             MOV     A,B
01B6 75F010         3251             MOV     B,#010H
01B9 A4             3252             MUL     AB
01BA 2400     F     3253             ADD     A,#LOW (NUM)
01BC F9             3254             MOV     R1,A
01BD 7400     F     3255             MOV     A,#HIGH (NUM)
01BF 35F0           3256             ADDC    A,B
01C1 7500FF   F     3257             MOV     ?_show_font_8f?BYTE+03H,#0FFH
01C4 F500     F     3258             MOV     ?_show_font_8f?BYTE+04H,A
01C6 8900     F     3259             MOV     ?_show_font_8f?BYTE+05H,R1
01C8 E500     F     3260             MOV     A,X_POI
01CA 700A           3261             JNZ     ?C0125
01CC E500     F     3262             MOV     A,Y_POI
01CE 6401           3263             XRL     A,#01H
01D0 7004           3264             JNZ     ?C0125
01D2 7F01           3265             MOV     R7,#01H
01D4 8002           3266             SJMP    ?C0126
01D6                3267     ?C0125:
01D6 7F00           3268             MOV     R7,#00H
01D8                3269     ?C0126:
01D8 8F00     F     3270             MOV     ?_show_font_8f?BYTE+06H,R7
01DA 7B02           3271             MOV     R3,#02H
01DC E4             3272             CLR     A
01DD FD             3273             MOV     R5,A
01DE 7F02           3274             MOV     R7,#02H
01E0 120000   F     3275             LCALL   _show_font_8f
                    3276                             ; SOURCE LINE # 122
01E3 7500FF   F     3277             MOV     ?_show_font_8?BYTE+03H,#0FFH
01E6 750000   F     3278             MOV     ?_show_font_8?BYTE+04H,#HIGH (Sing)
01E9 750000   F     3279             MOV     ?_show_font_8?BYTE+05H,#LOW (Sing)
01EC 7B02           3280             MOV     R3,#02H
01EE 7D10           3281             MOV     R5,#010H
01F0 7F02           3282             MOV     R7,#02H
01F2 120000   F     3283             LCALL   _show_font_8
                    3284                             ; SOURCE LINE # 124
01F5 850000   F     3285             MOV     buf?29101,cla_+04H
                    3286                             ; SOURCE LINE # 125
01F8 E500     F     3287             MOV     A,buf?29101
01FA 75F00A         3288             MOV     B,#0AH
01FD 84             3289             DIV     AB
01FE E5F0           3290             MOV     A,B
0200 75F010         3291             MOV     B,#010H
A51 MACRO ASSEMBLER  MAIN                                                                 12/19/2019 15:45:25 PAGE    51

0203 A4             3292             MUL     AB
0204 2400     F     3293             ADD     A,#LOW (NUM)
0206 F9             3294             MOV     R1,A
0207 7400     F     3295             MOV     A,#HIGH (NUM)
0209 35F0           3296             ADDC    A,B
020B 7500FF   F     3297             MOV     ?_show_font_8f?BYTE+03H,#0FFH
020E F500     F     3298             MOV     ?_show_font_8f?BYTE+04H,A
0210 8900     F     3299             MOV     ?_show_font_8f?BYTE+05H,R1
0212 E500     F     3300             MOV     A,X_POI
0214 6401           3301             XRL     A,#01H
0216 700A           3302             JNZ     ?C0127
0218 E500     F     3303             MOV     A,Y_POI
021A 6401           3304             XRL     A,#01H
021C 7004           3305             JNZ     ?C0127
021E 7F01           3306             MOV     R7,#01H
0220 8002           3307             SJMP    ?C0128
0222                3308     ?C0127:
0222 7F00           3309             MOV     R7,#00H
0224                3310     ?C0128:
0224 8F00     F     3311             MOV     ?_show_font_8f?BYTE+06H,R7
0226 7B02           3312             MOV     R3,#02H
0228 7D20           3313             MOV     R5,#020H
022A 7F02           3314             MOV     R7,#02H
022C 120000   F     3315             LCALL   _show_font_8f
                    3316                             ; SOURCE LINE # 126
022F E500     F     3317             MOV     A,buf?29101
0231 75F00A         3318             MOV     B,#0AH
0234 84             3319             DIV     AB
0235 F500     F     3320             MOV     buf?29101,A
                    3321                             ; SOURCE LINE # 127
0237 75F00A         3322             MOV     B,#0AH
023A 84             3323             DIV     AB
023B E5F0           3324             MOV     A,B
023D 75F010         3325             MOV     B,#010H
0240 A4             3326             MUL     AB
0241 2400     F     3327             ADD     A,#LOW (NUM)
0243 F9             3328             MOV     R1,A
0244 7400     F     3329             MOV     A,#HIGH (NUM)
0246 35F0           3330             ADDC    A,B
0248 7500FF   F     3331             MOV     ?_show_font_8f?BYTE+03H,#0FFH
024B F500     F     3332             MOV     ?_show_font_8f?BYTE+04H,A
024D 8900     F     3333             MOV     ?_show_font_8f?BYTE+05H,R1
024F E500     F     3334             MOV     A,X_POI
0251 6401           3335             XRL     A,#01H
0253 700A           3336             JNZ     ?C0129
0255 E500     F     3337             MOV     A,Y_POI
0257 6401           3338             XRL     A,#01H
0259 7004           3339             JNZ     ?C0129
025B 7F01           3340             MOV     R7,#01H
025D 8002           3341             SJMP    ?C0130
025F                3342     ?C0129:
025F 7F00           3343             MOV     R7,#00H
0261                3344     ?C0130:
0261 8F00     F     3345             MOV     ?_show_font_8f?BYTE+06H,R7
0263 7B02           3346             MOV     R3,#02H
0265 7D18           3347             MOV     R5,#018H
0267 7F02           3348             MOV     R7,#02H
0269 120000   F     3349             LCALL   _show_font_8f
                    3350                             ; SOURCE LINE # 129
026C 7500FF   F     3351             MOV     ?_show_font_8?BYTE+03H,#0FFH
026F 750000   F     3352             MOV     ?_show_font_8?BYTE+04H,#HIGH (Sing)
0272 750000   F     3353             MOV     ?_show_font_8?BYTE+05H,#LOW (Sing)
0275 7B02           3354             MOV     R3,#02H
0277 7D28           3355             MOV     R5,#028H
0279 7F02           3356             MOV     R7,#02H
027B 120000   F     3357             LCALL   _show_font_8
A51 MACRO ASSEMBLER  MAIN                                                                 12/19/2019 15:45:25 PAGE    52

                    3358                             ; SOURCE LINE # 132
027E 850000   F     3359             MOV     buf?29101,cla_+05H
                    3360                             ; SOURCE LINE # 133
0281 E500     F     3361             MOV     A,buf?29101
0283 75F00A         3362             MOV     B,#0AH
0286 84             3363             DIV     AB
0287 E5F0           3364             MOV     A,B
0289 75F010         3365             MOV     B,#010H
028C A4             3366             MUL     AB
028D 2400     F     3367             ADD     A,#LOW (NUM)
028F F9             3368             MOV     R1,A
0290 7400     F     3369             MOV     A,#HIGH (NUM)
0292 35F0           3370             ADDC    A,B
0294 7500FF   F     3371             MOV     ?_show_font_8f?BYTE+03H,#0FFH
0297 F500     F     3372             MOV     ?_show_font_8f?BYTE+04H,A
0299 8900     F     3373             MOV     ?_show_font_8f?BYTE+05H,R1
029B E500     F     3374             MOV     A,X_POI
029D 6402           3375             XRL     A,#02H
029F 700A           3376             JNZ     ?C0131
02A1 E500     F     3377             MOV     A,Y_POI
02A3 6401           3378             XRL     A,#01H
02A5 7004           3379             JNZ     ?C0131
02A7 7F01           3380             MOV     R7,#01H
02A9 8002           3381             SJMP    ?C0132
02AB                3382     ?C0131:
02AB 7F00           3383             MOV     R7,#00H
02AD                3384     ?C0132:
02AD 8F00     F     3385             MOV     ?_show_font_8f?BYTE+06H,R7
02AF 7B02           3386             MOV     R3,#02H
02B1 7D38           3387             MOV     R5,#038H
02B3 7F02           3388             MOV     R7,#02H
02B5 120000   F     3389             LCALL   _show_font_8f
                    3390                             ; SOURCE LINE # 134
02B8 E500     F     3391             MOV     A,buf?29101
02BA 75F00A         3392             MOV     B,#0AH
02BD 84             3393             DIV     AB
02BE F500     F     3394             MOV     buf?29101,A
                    3395                             ; SOURCE LINE # 135
02C0 75F00A         3396             MOV     B,#0AH
02C3 84             3397             DIV     AB
02C4 E5F0           3398             MOV     A,B
02C6 75F010         3399             MOV     B,#010H
02C9 A4             3400             MUL     AB
02CA 2400     F     3401             ADD     A,#LOW (NUM)
02CC F9             3402             MOV     R1,A
02CD 7400     F     3403             MOV     A,#HIGH (NUM)
02CF 35F0           3404             ADDC    A,B
02D1 7500FF   F     3405             MOV     ?_show_font_8f?BYTE+03H,#0FFH
02D4 F500     F     3406             MOV     ?_show_font_8f?BYTE+04H,A
02D6 8900     F     3407             MOV     ?_show_font_8f?BYTE+05H,R1
02D8 E500     F     3408             MOV     A,X_POI
02DA 6402           3409             XRL     A,#02H
02DC 700A           3410             JNZ     ?C0133
02DE E500     F     3411             MOV     A,Y_POI
02E0 6401           3412             XRL     A,#01H
02E2 7004           3413             JNZ     ?C0133
02E4 7F01           3414             MOV     R7,#01H
02E6 8002           3415             SJMP    ?C0134
02E8                3416     ?C0133:
02E8 7F00           3417             MOV     R7,#00H
02EA                3418     ?C0134:
02EA 8F00     F     3419             MOV     ?_show_font_8f?BYTE+06H,R7
02EC 7B02           3420             MOV     R3,#02H
02EE 7D30           3421             MOV     R5,#030H
02F0 7F02           3422             MOV     R7,#02H
02F2 120000   F     3423             LCALL   _show_font_8f
A51 MACRO ASSEMBLER  MAIN                                                                 12/19/2019 15:45:25 PAGE    53

                    3424                             ; SOURCE LINE # 139
02F5 850000   F     3425             MOV     buf?29101,cla_+06H
                    3426                             ; SOURCE LINE # 140
02F8 E500     F     3427             MOV     A,buf?29101
02FA 75F00A         3428             MOV     B,#0AH
02FD 84             3429             DIV     AB
02FE E5F0           3430             MOV     A,B
0300 75F010         3431             MOV     B,#010H
0303 A4             3432             MUL     AB
0304 2400     F     3433             ADD     A,#LOW (NUM)
0306 F9             3434             MOV     R1,A
0307 7400     F     3435             MOV     A,#HIGH (NUM)
0309 35F0           3436             ADDC    A,B
030B 7500FF   F     3437             MOV     ?_show_font_8f?BYTE+03H,#0FFH
030E F500     F     3438             MOV     ?_show_font_8f?BYTE+04H,A
0310 8900     F     3439             MOV     ?_show_font_8f?BYTE+05H,R1
0312 E500     F     3440             MOV     A,X_POI
0314 700A           3441             JNZ     ?C0135
0316 E500     F     3442             MOV     A,Y_POI
0318 6402           3443             XRL     A,#02H
031A 7004           3444             JNZ     ?C0135
031C 7F01           3445             MOV     R7,#01H
031E 8002           3446             SJMP    ?C0136
0320                3447     ?C0135:
0320 7F00           3448             MOV     R7,#00H
0322                3449     ?C0136:
0322 8F00     F     3450             MOV     ?_show_font_8f?BYTE+06H,R7
0324 7B04           3451             MOV     R3,#04H
0326 7D08           3452             MOV     R5,#08H
0328 7F02           3453             MOV     R7,#02H
032A 120000   F     3454             LCALL   _show_font_8f
                    3455                             ; SOURCE LINE # 141
032D E500     F     3456             MOV     A,buf?29101
032F 75F00A         3457             MOV     B,#0AH
0332 84             3458             DIV     AB
0333 F500     F     3459             MOV     buf?29101,A
                    3460     ;       show_font_8f(2,8*0,4,NUM[buf%10],(X_POI == 0 && Y_POI == 2));
                    3461                             ; SOURCE LINE # 142
0335 75F00A         3462             MOV     B,#0AH
0338 84             3463             DIV     AB
0339 E5F0           3464             MOV     A,B
033B 75F010         3465             MOV     B,#010H
033E A4             3466             MUL     AB
033F 2400     F     3467             ADD     A,#LOW (NUM)
0341 F9             3468             MOV     R1,A
0342 7400     F     3469             MOV     A,#HIGH (NUM)
0344 35F0           3470             ADDC    A,B
0346 7500FF   F     3471             MOV     ?_show_font_8f?BYTE+03H,#0FFH
0349 F500     F     3472             MOV     ?_show_font_8f?BYTE+04H,A
034B 8900     F     3473             MOV     ?_show_font_8f?BYTE+05H,R1
034D E500     F     3474             MOV     A,X_POI
034F 700A           3475             JNZ     ?C0137
0351 E500     F     3476             MOV     A,Y_POI
0353 6402           3477             XRL     A,#02H
0355 7004           3478             JNZ     ?C0137
0357 7F01           3479             MOV     R7,#01H
0359 8002           3480             SJMP    ?C0138
035B                3481     ?C0137:
035B 7F00           3482             MOV     R7,#00H
035D                3483     ?C0138:
035D 8F00     F     3484             MOV     ?_show_font_8f?BYTE+06H,R7
035F 7B04           3485             MOV     R3,#04H
0361 E4             3486             CLR     A
0362 FD             3487             MOV     R5,A
0363 7F02           3488             MOV     R7,#02H
0365 120000   F     3489             LCALL   _show_font_8f
A51 MACRO ASSEMBLER  MAIN                                                                 12/19/2019 15:45:25 PAGE    54

                    3490     ;       
                    3491     ;       show_font_8(2,8*2,4,Sing[0]);
                    3492                             ; SOURCE LINE # 144
0368 7500FF   F     3493             MOV     ?_show_font_8?BYTE+03H,#0FFH
036B 750000   F     3494             MOV     ?_show_font_8?BYTE+04H,#HIGH (Sing)
036E 750000   F     3495             MOV     ?_show_font_8?BYTE+05H,#LOW (Sing)
0371 7B04           3496             MOV     R3,#04H
0373 7D10           3497             MOV     R5,#010H
0375 7F02           3498             MOV     R7,#02H
0377 120000   F     3499             LCALL   _show_font_8
                    3500     ;       //
                    3501     ;       buf = cla_[2][1];
                    3502                             ; SOURCE LINE # 146
037A 850000   F     3503             MOV     buf?29101,cla_+07H
                    3504     ;       show_font_8f(2,8*4,4,NUM[buf%10],(X_POI == 1 && Y_POI == 2));
                    3505                             ; SOURCE LINE # 147
037D E500     F     3506             MOV     A,buf?29101
037F 75F00A         3507             MOV     B,#0AH
0382 84             3508             DIV     AB
0383 E5F0           3509             MOV     A,B
0385 75F010         3510             MOV     B,#010H
0388 A4             3511             MUL     AB
0389 2400     F     3512             ADD     A,#LOW (NUM)
038B F9             3513             MOV     R1,A
038C 7400     F     3514             MOV     A,#HIGH (NUM)
038E 35F0           3515             ADDC    A,B
0390 7500FF   F     3516             MOV     ?_show_font_8f?BYTE+03H,#0FFH
0393 F500     F     3517             MOV     ?_show_font_8f?BYTE+04H,A
0395 8900     F     3518             MOV     ?_show_font_8f?BYTE+05H,R1
0397 E500     F     3519             MOV     A,X_POI
0399 6401           3520             XRL     A,#01H
039B 700A           3521             JNZ     ?C0139
039D E500     F     3522             MOV     A,Y_POI
039F 6402           3523             XRL     A,#02H
03A1 7004           3524             JNZ     ?C0139
03A3 7F01           3525             MOV     R7,#01H
03A5 8002           3526             SJMP    ?C0140
03A7                3527     ?C0139:
03A7 7F00           3528             MOV     R7,#00H
03A9                3529     ?C0140:
03A9 8F00     F     3530             MOV     ?_show_font_8f?BYTE+06H,R7
03AB 7B04           3531             MOV     R3,#04H
03AD 7D20           3532             MOV     R5,#020H
03AF 7F02           3533             MOV     R7,#02H
03B1 120000   F     3534             LCALL   _show_font_8f
                    3535     ;       buf /= 10;
                    3536                             ; SOURCE LINE # 148
03B4 E500     F     3537             MOV     A,buf?29101
03B6 75F00A         3538             MOV     B,#0AH
03B9 84             3539             DIV     AB
03BA F500     F     3540             MOV     buf?29101,A
                    3541     ;       show_font_8f(2,8*3,4,NUM[buf%10],(X_POI == 1 && Y_POI == 2));
                    3542                             ; SOURCE LINE # 149
03BC 75F00A         3543             MOV     B,#0AH
03BF 84             3544             DIV     AB
03C0 E5F0           3545             MOV     A,B
03C2 75F010         3546             MOV     B,#010H
03C5 A4             3547             MUL     AB
03C6 2400     F     3548             ADD     A,#LOW (NUM)
03C8 F9             3549             MOV     R1,A
03C9 7400     F     3550             MOV     A,#HIGH (NUM)
03CB 35F0           3551             ADDC    A,B
03CD 7500FF   F     3552             MOV     ?_show_font_8f?BYTE+03H,#0FFH
03D0 F500     F     3553             MOV     ?_show_font_8f?BYTE+04H,A
03D2 8900     F     3554             MOV     ?_show_font_8f?BYTE+05H,R1
03D4 E500     F     3555             MOV     A,X_POI
A51 MACRO ASSEMBLER  MAIN                                                                 12/19/2019 15:45:25 PAGE    55

03D6 6401           3556             XRL     A,#01H
03D8 700A           3557             JNZ     ?C0141
03DA E500     F     3558             MOV     A,Y_POI
03DC 6402           3559             XRL     A,#02H
03DE 7004           3560             JNZ     ?C0141
03E0 7F01           3561             MOV     R7,#01H
03E2 8002           3562             SJMP    ?C0142
03E4                3563     ?C0141:
03E4 7F00           3564             MOV     R7,#00H
03E6                3565     ?C0142:
03E6 8F00     F     3566             MOV     ?_show_font_8f?BYTE+06H,R7
03E8 7B04           3567             MOV     R3,#04H
03EA 7D18           3568             MOV     R5,#018H
03EC 7F02           3569             MOV     R7,#02H
03EE 120000   F     3570             LCALL   _show_font_8f
                    3571     ;       
                    3572     ;       show_font_8(2,8*5,4,Sing[0]);
                    3573                             ; SOURCE LINE # 151
03F1 7500FF   F     3574             MOV     ?_show_font_8?BYTE+03H,#0FFH
03F4 750000   F     3575             MOV     ?_show_font_8?BYTE+04H,#HIGH (Sing)
03F7 750000   F     3576             MOV     ?_show_font_8?BYTE+05H,#LOW (Sing)
03FA 7B04           3577             MOV     R3,#04H
03FC 7D28           3578             MOV     R5,#028H
03FE 7F02           3579             MOV     R7,#02H
0400 120000   F     3580             LCALL   _show_font_8
                    3581     ;       
                    3582     ;       //
                    3583     ;       buf = cla_[2][2];
                    3584                             ; SOURCE LINE # 154
0403 850000   F     3585             MOV     buf?29101,cla_+08H
                    3586     ;       show_font_8f(2,8*7,4,NUM[buf%10],(X_POI == 2 && Y_POI == 2));
                    3587                             ; SOURCE LINE # 155
0406 E500     F     3588             MOV     A,buf?29101
0408 75F00A         3589             MOV     B,#0AH
040B 84             3590             DIV     AB
040C E5F0           3591             MOV     A,B
040E 75F010         3592             MOV     B,#010H
0411 A4             3593             MUL     AB
0412 2400     F     3594             ADD     A,#LOW (NUM)
0414 F9             3595             MOV     R1,A
0415 7400     F     3596             MOV     A,#HIGH (NUM)
0417 35F0           3597             ADDC    A,B
0419 7500FF   F     3598             MOV     ?_show_font_8f?BYTE+03H,#0FFH
041C F500     F     3599             MOV     ?_show_font_8f?BYTE+04H,A
041E 8900     F     3600             MOV     ?_show_font_8f?BYTE+05H,R1
0420 E500     F     3601             MOV     A,X_POI
0422 6402           3602             XRL     A,#02H
0424 700A           3603             JNZ     ?C0143
0426 E500     F     3604             MOV     A,Y_POI
0428 6402           3605             XRL     A,#02H
042A 7004           3606             JNZ     ?C0143
042C 7F01           3607             MOV     R7,#01H
042E 8002           3608             SJMP    ?C0144
0430                3609     ?C0143:
0430 7F00           3610             MOV     R7,#00H
0432                3611     ?C0144:
0432 8F00     F     3612             MOV     ?_show_font_8f?BYTE+06H,R7
0434 7B04           3613             MOV     R3,#04H
0436 7D38           3614             MOV     R5,#038H
0438 7F02           3615             MOV     R7,#02H
043A 120000   F     3616             LCALL   _show_font_8f
                    3617     ;       buf /= 10;
                    3618                             ; SOURCE LINE # 156
043D E500     F     3619             MOV     A,buf?29101
043F 75F00A         3620             MOV     B,#0AH
0442 84             3621             DIV     AB
A51 MACRO ASSEMBLER  MAIN                                                                 12/19/2019 15:45:25 PAGE    56

0443 F500     F     3622             MOV     buf?29101,A
                    3623     ;       show_font_8f(2,8*6,4,NUM[buf%10],(X_POI == 2 && Y_POI == 2));
                    3624                             ; SOURCE LINE # 157
0445 75F00A         3625             MOV     B,#0AH
0448 84             3626             DIV     AB
0449 E5F0           3627             MOV     A,B
044B 75F010         3628             MOV     B,#010H
044E A4             3629             MUL     AB
044F 2400     F     3630             ADD     A,#LOW (NUM)
0451 F9             3631             MOV     R1,A
0452 7400     F     3632             MOV     A,#HIGH (NUM)
0454 35F0           3633             ADDC    A,B
0456 7500FF   F     3634             MOV     ?_show_font_8f?BYTE+03H,#0FFH
0459 F500     F     3635             MOV     ?_show_font_8f?BYTE+04H,A
045B 8900     F     3636             MOV     ?_show_font_8f?BYTE+05H,R1
045D E500     F     3637             MOV     A,X_POI
045F 6402           3638             XRL     A,#02H
0461 700A           3639             JNZ     ?C0145
0463 E500     F     3640             MOV     A,Y_POI
0465 6402           3641             XRL     A,#02H
0467 7004           3642             JNZ     ?C0145
0469 7F01           3643             MOV     R7,#01H
046B 8002           3644             SJMP    ?C0146
046D                3645     ?C0145:
046D 7F00           3646             MOV     R7,#00H
046F                3647     ?C0146:
046F 8F00     F     3648             MOV     ?_show_font_8f?BYTE+06H,R7
0471 7B04           3649             MOV     R3,#04H
0473 7D30           3650             MOV     R5,#030H
0475 7F02           3651             MOV     R7,#02H
0477 020000   F     3652             LJMP    _show_font_8f
                    3653     ; END OF show_del
                    3654     
                    3655     ;       
                    3656     ; }
                    3657     ; void drmatic_display(){
                    3658     
----                3659             RSEG  ?PR?drmatic_display?MAIN
0000                3660     drmatic_display:
                    3661             USING   0
                    3662                             ; SOURCE LINE # 160
                    3663     ;       show_time();
                    3664                             ; SOURCE LINE # 161
0000 120000   F     3665             LCALL   show_time
                    3666     ;       show_del();
                    3667                             ; SOURCE LINE # 162
0003 020000   F     3668             LJMP    show_del
                    3669     ; END OF drmatic_display
                    3670     
                    3671     ; }
                    3672     ; 
                    3673     ; uchar on_time(){
                    3674     
----                3675             RSEG  ?PR?on_time?MAIN
0000                3676     on_time:
                    3677             USING   0
                    3678                             ; SOURCE LINE # 165
                    3679     ;       uchar ans,x;
                    3680     ;       ans = 0;
                    3681                             ; SOURCE LINE # 167
                    3682     ;---- Variable 'ans?31102' assigned to Register 'R7' ----
0000 E4             3683             CLR     A
0001 FF             3684             MOV     R7,A
                    3685     ;       for(x = 0 ; x < 3 ; ++x){
                    3686                             ; SOURCE LINE # 168
                    3687     ;---- Variable 'x?31103' assigned to Register 'R6' ----
A51 MACRO ASSEMBLER  MAIN                                                                 12/19/2019 15:45:25 PAGE    57

0002 FE             3688             MOV     R6,A
0003                3689     ?C0149:
0003 EE             3690             MOV     A,R6
0004 C3             3691             CLR     C
0005 9403           3692             SUBB    A,#03H
0007 7480           3693             MOV     A,#080H
0009 9480           3694             SUBB    A,#080H
000B 502B           3695             JNC     ?C0150
                    3696     ;               if(
                    3697                             ; SOURCE LINE # 169
000D EE             3698             MOV     A,R6
000E 75F003         3699             MOV     B,#03H
0011 A4             3700             MUL     AB
0012 2400     F     3701             ADD     A,#LOW (cla_)
0014 F8             3702             MOV     R0,A
0015 E6             3703             MOV     A,@R0
0016 6500     F     3704             XRL     A,res+02H
0018 701B           3705             JNZ     ?C0151
001A EE             3706             MOV     A,R6
001B 75F003         3707             MOV     B,#03H
001E A4             3708             MUL     AB
001F 2400     F     3709             ADD     A,#LOW (cla_+01H)
0021 F8             3710             MOV     R0,A
0022 E6             3711             MOV     A,@R0
0023 B5000F   F     3712             CJNE    A,res+01H,?C0151
0026 EE             3713             MOV     A,R6
0027 75F003         3714             MOV     B,#03H
002A A4             3715             MUL     AB
002B 2400     F     3716             ADD     A,#LOW (cla_+02H)
002D F8             3717             MOV     R0,A
002E E6             3718             MOV     A,@R0
002F B50003   F     3719             CJNE    A,res,?C0151
                    3720     ;                       (cla_[x][0] == res[2]) &&
                    3721     ;                       cla_[x][1] == res[1] &&
                    3722     ;                       cla_[x][2] == res[0]
                    3723     ;               ){
                    3724                             ; SOURCE LINE # 173
                    3725     ;                       ans = 1;
                    3726                             ; SOURCE LINE # 174
0032 7F01           3727             MOV     R7,#01H
                    3728     ;                       break;
                    3729                             ; SOURCE LINE # 175
0034 22             3730             RET     
                    3731     ;               }
                    3732                             ; SOURCE LINE # 176
                    3733     ;       }
                    3734                             ; SOURCE LINE # 177
0035                3735     ?C0151:
0035 0E             3736             INC     R6
0036 80CB           3737             SJMP    ?C0149
0038                3738     ?C0150:
                    3739     ;       return ans;
                    3740                             ; SOURCE LINE # 178
                    3741     ; }
                    3742                             ; SOURCE LINE # 179
0038 22             3743             RET     
                    3744     ; END OF on_time
                    3745     
                    3746     ; uint last_val = 0;
                    3747     ; void show_temper(){
                    3748     
----                3749             RSEG  ?PR?show_temper?MAIN
0000                3750     show_temper:
                    3751             USING   0
                    3752                             ; SOURCE LINE # 181
                    3753     ;       
A51 MACRO ASSEMBLER  MAIN                                                                 12/19/2019 15:45:25 PAGE    58

                    3754     ;       uint te = ReadTemperature();
                    3755                             ; SOURCE LINE # 183
0000 120000   F     3756             LCALL   ReadTemperature
0003 8E00     F     3757             MOV     te?32104,R6
0005 8F00     F     3758             MOV     te?32104+01H,R7
                    3759     ;       
                    3760     ;       if(last_val == te) return;
                    3761                             ; SOURCE LINE # 185
0007 E500     F     3762             MOV     A,last_val+01H
0009 6500     F     3763             XRL     A,te?32104+01H
000B 7004           3764             JNZ     ?C0235
000D E500     F     3765             MOV     A,last_val
000F 6500     F     3766             XRL     A,te?32104
0011                3767     ?C0235:
0011 7003           3768             JNZ     $ + 5H
0013 020000   F     3769             LJMP    ?C0155
                    3770     ;       last_val = te;
                    3771                             ; SOURCE LINE # 186
0016 850000   F     3772             MOV     last_val,te?32104
0019 850000   F     3773             MOV     last_val+01H,te?32104+01H
                    3774     ;       show_font_16(1,16*0,6,HanZi_16[6]);
                    3775                             ; SOURCE LINE # 187
001C 7500FF   F     3776             MOV     ?_show_font_16?BYTE+03H,#0FFH
001F 750000   F     3777             MOV     ?_show_font_16?BYTE+04H,#HIGH (HanZi_16+0C0H)
0022 750000   F     3778             MOV     ?_show_font_16?BYTE+05H,#LOW (HanZi_16+0C0H)
0025 7B06           3779             MOV     R3,#06H
0027 E4             3780             CLR     A
0028 FD             3781             MOV     R5,A
0029 7F01           3782             MOV     R7,#01H
002B 120000   F     3783             LCALL   _show_font_16
                    3784     ;       show_font_16(1,16*1,6,HanZi_16[7]);
                    3785                             ; SOURCE LINE # 188
002E 7500FF   F     3786             MOV     ?_show_font_16?BYTE+03H,#0FFH
0031 750000   F     3787             MOV     ?_show_font_16?BYTE+04H,#HIGH (HanZi_16+0E0H)
0034 750000   F     3788             MOV     ?_show_font_16?BYTE+05H,#LOW (HanZi_16+0E0H)
0037 7B06           3789             MOV     R3,#06H
0039 120000   F     3790             LCALL   L?0255
                    3791     ;       show_font_16(1,16*2,6,HanZi_16[8]);
                    3792                             ; SOURCE LINE # 189
003C 7500FF   F     3793             MOV     ?_show_font_16?BYTE+03H,#0FFH
003F 750000   F     3794             MOV     ?_show_font_16?BYTE+04H,#HIGH (HanZi_16+0100H)
0042 750000   F     3795             MOV     ?_show_font_16?BYTE+05H,#LOW (HanZi_16+0100H)
0045 7B06           3796             MOV     R3,#06H
0047 7D20           3797             MOV     R5,#020H
0049 7F01           3798             MOV     R7,#01H
004B 120000   F     3799             LCALL   _show_font_16
                    3800     ;       
                    3801     ;       show_font_8(1,16*2,6,NUM[te/10]);
                    3802                             ; SOURCE LINE # 191
004E AE00     F     3803             MOV     R6,te?32104
0050 AF00     F     3804             MOV     R7,te?32104+01H
0052 7C00           3805             MOV     R4,#00H
0054 7D0A           3806             MOV     R5,#0AH
0056 120000   F     3807             LCALL   ?C?UIDIV
0059 EF             3808             MOV     A,R7
005A C4             3809             SWAP    A
005B F8             3810             MOV     R0,A
005C 540F           3811             ANL     A,#0FH
005E C8             3812             XCH     A,R0
005F 68             3813             XRL     A,R0
0060 FF             3814             MOV     R7,A
0061 EE             3815             MOV     A,R6
0062 C4             3816             SWAP    A
0063 54F0           3817             ANL     A,#0F0H
0065 48             3818             ORL     A,R0
0066 FE             3819             MOV     R6,A
A51 MACRO ASSEMBLER  MAIN                                                                 12/19/2019 15:45:25 PAGE    59

0067 7400     F     3820             MOV     A,#LOW (NUM)
0069 2F             3821             ADD     A,R7
006A F9             3822             MOV     R1,A
006B 7400     F     3823             MOV     A,#HIGH (NUM)
006D 3E             3824             ADDC    A,R6
006E 7500FF   F     3825             MOV     ?_show_font_8?BYTE+03H,#0FFH
0071 F500     F     3826             MOV     ?_show_font_8?BYTE+04H,A
0073 8900     F     3827             MOV     ?_show_font_8?BYTE+05H,R1
0075 7B06           3828             MOV     R3,#06H
0077 7D20           3829             MOV     R5,#020H
0079 7F01           3830             MOV     R7,#01H
007B 120000   F     3831             LCALL   _show_font_8
                    3832     ;       show_font_8(1,16*2+8,6,NUM[te%10]);
                    3833                             ; SOURCE LINE # 192
007E AE00     F     3834             MOV     R6,te?32104
0080 AF00     F     3835             MOV     R7,te?32104+01H
0082 7C00           3836             MOV     R4,#00H
0084 7D0A           3837             MOV     R5,#0AH
0086 120000   F     3838             LCALL   ?C?UIDIV
0089 ED             3839             MOV     A,R5
008A C4             3840             SWAP    A
008B F8             3841             MOV     R0,A
008C 540F           3842             ANL     A,#0FH
008E C8             3843             XCH     A,R0
008F 68             3844             XRL     A,R0
0090 FF             3845             MOV     R7,A
0091 EC             3846             MOV     A,R4
0092 C4             3847             SWAP    A
0093 54F0           3848             ANL     A,#0F0H
0095 48             3849             ORL     A,R0
0096 FE             3850             MOV     R6,A
0097 7400     F     3851             MOV     A,#LOW (NUM)
0099 2F             3852             ADD     A,R7
009A F9             3853             MOV     R1,A
009B 7400     F     3854             MOV     A,#HIGH (NUM)
009D 3E             3855             ADDC    A,R6
009E 7500FF   F     3856             MOV     ?_show_font_8?BYTE+03H,#0FFH
00A1 F500     F     3857             MOV     ?_show_font_8?BYTE+04H,A
00A3 8900     F     3858             MOV     ?_show_font_8?BYTE+05H,R1
00A5 7B06           3859             MOV     R3,#06H
00A7 7D28           3860             MOV     R5,#028H
00A9 7F01           3861             MOV     R7,#01H
00AB 120000   F     3862             LCALL   _show_font_8
                    3863     ;       
                    3864     ;       show_font_16(1,16*2+8+8,6,HanZi_16[9]);
                    3865                             ; SOURCE LINE # 194
00AE 7500FF   F     3866             MOV     ?_show_font_16?BYTE+03H,#0FFH
00B1 750000   F     3867             MOV     ?_show_font_16?BYTE+04H,#HIGH (HanZi_16+0120H)
00B4 750000   F     3868             MOV     ?_show_font_16?BYTE+05H,#LOW (HanZi_16+0120H)
00B7 7B06           3869             MOV     R3,#06H
00B9 7D30           3870             MOV     R5,#030H
00BB 7F01           3871             MOV     R7,#01H
00BD 120000   F     3872             LCALL   _show_font_16
                    3873     ; }
                    3874                             ; SOURCE LINE # 195
00C0                3875     ?C0155:
00C0 22             3876             RET     
                    3877     ; END OF show_temper
                    3878     
                    3879     ; 
                    3880     ; 
                    3881     ; 
                    3882     ; void set_view(uchar opt){
                    3883     
----                3884             RSEG  ?PR?_set_view?MAIN
0000                3885     _set_view:
A51 MACRO ASSEMBLER  MAIN                                                                 12/19/2019 15:45:25 PAGE    60

                    3886             USING   0
                    3887                             ; SOURCE LINE # 199
                    3888     ;---- Variable 'opt?33105' assigned to Register 'R7' ----
                    3889     ;       uchar buf;
                    3890     ;       
                    3891     ;       
                    3892     ;       if(opt != 0)
                    3893                             ; SOURCE LINE # 203
0000 EF             3894             MOV     A,R7
0001 7003           3895             JNZ     $ + 5H
0003 020000   F     3896             LJMP    ?C0156
                    3897     ;       {
                    3898                             ; SOURCE LINE # 204
                    3899     ;               if(opt == 1){
                    3900                             ; SOURCE LINE # 205
0006 6401           3901             XRL     A,#01H
0008 700C           3902             JNZ     ?C0157
                    3903     ;                       ++res[LOC[POI]];
                    3904                             ; SOURCE LINE # 206
000A 7400     F     3905             MOV     A,#LOW (LOC)
000C 2500     F     3906             ADD     A,POI
000E F8             3907             MOV     R0,A
000F E6             3908             MOV     A,@R0
0010 2400     F     3909             ADD     A,#LOW (res)
0012 F8             3910             MOV     R0,A
0013 06             3911             INC     @R0
                    3912     ;               }else if(opt == 2){
                    3913                             ; SOURCE LINE # 207
0014 8036           3914             SJMP    ?C0158
0016                3915     ?C0157:
0016 EF             3916             MOV     A,R7
0017 FD             3917             MOV     R5,A
0018 7C00           3918             MOV     R4,#00H
001A 6402           3919             XRL     A,#02H
001C 700C           3920             JNZ     ?C0159
                    3921     ;                       --res[LOC[POI]];
                    3922                             ; SOURCE LINE # 208
001E 7400     F     3923             MOV     A,#LOW (LOC)
0020 2500     F     3924             ADD     A,POI
0022 F8             3925             MOV     R0,A
0023 E6             3926             MOV     A,@R0
0024 2400     F     3927             ADD     A,#LOW (res)
0026 F8             3928             MOV     R0,A
0027 16             3929             DEC     @R0
                    3930     ;               }else if(opt == 3){
                    3931                             ; SOURCE LINE # 209
0028 8022           3932             SJMP    ?C0158
002A                3933     ?C0159:
002A ED             3934             MOV     A,R5
002B 6403           3935             XRL     A,#03H
002D 4C             3936             ORL     A,R4
002E 7006           3937             JNZ     ?C0161
                    3938     ;                       POI = (POI + 5) % 6;
                    3939                             ; SOURCE LINE # 210
0030 E500     F     3940             MOV     A,POI
0032 2405           3941             ADD     A,#05H
                    3942     ;               }else if(opt == 4){
                    3943                             ; SOURCE LINE # 211
0034 8009           3944             SJMP    ?C0238
0036                3945     ?C0161:
0036 EF             3946             MOV     A,R7
0037 6404           3947             XRL     A,#04H
0039 7011           3948             JNZ     ?C0158
                    3949     ;                       POI = (POI + 1) % 6;
                    3950                             ; SOURCE LINE # 212
003B E500     F     3951             MOV     A,POI
A51 MACRO ASSEMBLER  MAIN                                                                 12/19/2019 15:45:25 PAGE    61

003D 2401           3952             ADD     A,#01H
003F                3953     ?C0238:
003F FF             3954             MOV     R7,A
0040 E4             3955             CLR     A
0041 33             3956             RLC     A
0042 FE             3957             MOV     R6,A
0043 7C00           3958             MOV     R4,#00H
0045 7D06           3959             MOV     R5,#06H
0047 120000   F     3960             LCALL   ?C?UIDIV
004A 8D00     F     3961             MOV     POI,R5
                    3962     ;               }
                    3963                             ; SOURCE LINE # 213
004C                3964     ?C0158:
                    3965     ;               if(POI == 1){
                    3966                             ; SOURCE LINE # 214
004C AF00     F     3967             MOV     R7,POI
004E 7E00           3968             MOV     R6,#00H
0050 EF             3969             MOV     A,R7
0051 6401           3970             XRL     A,#01H
0053 702A           3971             JNZ     ?C0164
                    3972     ;                       if(res[LOC[POI]] == 0) res[LOC[POI]] = 12;
                    3973                             ; SOURCE LINE # 215
0055 7400     F     3974             MOV     A,#LOW (LOC)
0057 2500     F     3975             ADD     A,POI
0059 F8             3976             MOV     R0,A
005A E6             3977             MOV     A,@R0
005B FD             3978             MOV     R5,A
005C 2400     F     3979             ADD     A,#LOW (res)
005E F8             3980             MOV     R0,A
005F E6             3981             MOV     A,@R0
0060 FB             3982             MOV     R3,A
0061 7A00           3983             MOV     R2,#00H
0063 7009           3984             JNZ     ?C0165
0065 7400     F     3985             MOV     A,#LOW (res)
0067 2D             3986             ADD     A,R5
0068 F8             3987             MOV     R0,A
0069 760C           3988             MOV     @R0,#0CH
006B 020000   F     3989             LJMP    ?C0168
006E                3990     ?C0165:
                    3991     ;                       else if(res[LOC[POI]] > 12) res[LOC[POI]] = 1;
                    3992                             ; SOURCE LINE # 216
006E D3             3993             SETB    C
006F EB             3994             MOV     A,R3
0070 940C           3995             SUBB    A,#0CH
0072 EA             3996             MOV     A,R2
0073 6480           3997             XRL     A,#080H
0075 9480           3998             SUBB    A,#080H
0077 5003           3999             JNC     $ + 5H
0079 020000   F     4000             LJMP    ?C0168
                    4001     ;               }else if(POI == 2){
                    4002                             ; SOURCE LINE # 217
007C 020000   F     4003             LJMP    ?C0243
007F                4004     ?C0164:
007F EF             4005             MOV     A,R7
0080 6402           4006             XRL     A,#02H
0082 4E             4007             ORL     A,R6
0083 7029           4008             JNZ     ?C0169
                    4009     ;                       if(res[LOC[POI]] == 0) res[LOC[POI]] = 30;
                    4010                             ; SOURCE LINE # 218
0085 7400     F     4011             MOV     A,#LOW (LOC)
0087 2500     F     4012             ADD     A,POI
0089 F8             4013             MOV     R0,A
008A E6             4014             MOV     A,@R0
008B FF             4015             MOV     R7,A
008C 2400     F     4016             ADD     A,#LOW (res)
008E F8             4017             MOV     R0,A
A51 MACRO ASSEMBLER  MAIN                                                                 12/19/2019 15:45:25 PAGE    62

008F E6             4018             MOV     A,@R0
0090 FD             4019             MOV     R5,A
0091 7C00           4020             MOV     R4,#00H
0093 7009           4021             JNZ     ?C0170
0095 7400     F     4022             MOV     A,#LOW (res)
0097 2F             4023             ADD     A,R7
0098 F8             4024             MOV     R0,A
0099 761E           4025             MOV     @R0,#01EH
009B 020000   F     4026             LJMP    ?C0168
009E                4027     ?C0170:
                    4028     ;                       else if(res[LOC[POI]] > 30) res[LOC[POI]] = 1;
                    4029                             ; SOURCE LINE # 219
009E D3             4030             SETB    C
009F ED             4031             MOV     A,R5
00A0 941E           4032             SUBB    A,#01EH
00A2 EC             4033             MOV     A,R4
00A3 6480           4034             XRL     A,#080H
00A5 9480           4035             SUBB    A,#080H
00A7 5003           4036             JNC     $ + 5H
00A9 020000   F     4037             LJMP    ?C0168
00AC                4038     ?C0239:
                    4039     ;               }else if(POI == 3){
                    4040                             ; SOURCE LINE # 220
00AC 807C           4041             SJMP    ?C0243
00AE                4042     ?C0169:
00AE AF00     F     4043             MOV     R7,POI
00B0 7E00           4044             MOV     R6,#00H
00B2 EF             4045             MOV     A,R7
00B3 6403           4046             XRL     A,#03H
00B5 7025           4047             JNZ     ?C0174
                    4048     ;                       if(res[LOC[POI]] == 0) res[LOC[POI]] = 24;
                    4049                             ; SOURCE LINE # 221
00B7 7400     F     4050             MOV     A,#LOW (LOC)
00B9 2500     F     4051             ADD     A,POI
00BB F8             4052             MOV     R0,A
00BC E6             4053             MOV     A,@R0
00BD FD             4054             MOV     R5,A
00BE 2400     F     4055             ADD     A,#LOW (res)
00C0 F8             4056             MOV     R0,A
00C1 E6             4057             MOV     A,@R0
00C2 FB             4058             MOV     R3,A
00C3 7A00           4059             MOV     R2,#00H
00C5 7008           4060             JNZ     ?C0175
00C7 7400     F     4061             MOV     A,#LOW (res)
00C9 2D             4062             ADD     A,R5
00CA F8             4063             MOV     R0,A
00CB 7618           4064             MOV     @R0,#018H
00CD 8066           4065             SJMP    ?C0168
00CF                4066     ?C0175:
                    4067     ;                       else if(res[LOC[POI]] > 24) res[LOC[POI]] = 1;
                    4068                             ; SOURCE LINE # 222
00CF D3             4069             SETB    C
00D0 EB             4070             MOV     A,R3
00D1 9418           4071             SUBB    A,#018H
00D3 EA             4072             MOV     A,R2
00D4 6480           4073             XRL     A,#080H
00D6 9480           4074             SUBB    A,#080H
00D8 405B           4075             JC      ?C0168
00DA                4076     ?C0240:
                    4077     ;               }else if(POI == 4){
                    4078                             ; SOURCE LINE # 223
00DA 804E           4079             SJMP    ?C0243
00DC                4080     ?C0174:
00DC EF             4081             MOV     A,R7
00DD 6404           4082             XRL     A,#04H
00DF 4E             4083             ORL     A,R6
A51 MACRO ASSEMBLER  MAIN                                                                 12/19/2019 15:45:25 PAGE    63

00E0 701F           4084             JNZ     ?C0179
                    4085     ;                       if(res[LOC[POI]] == 0) res[LOC[POI]] = 60;
                    4086                             ; SOURCE LINE # 224
00E2 7400     F     4087             MOV     A,#LOW (LOC)
00E4 2500     F     4088             ADD     A,POI
00E6 F8             4089             MOV     R0,A
00E7 E6             4090             MOV     A,@R0
00E8 FF             4091             MOV     R7,A
00E9 2400     F     4092             ADD     A,#LOW (res)
00EB F8             4093             MOV     R0,A
00EC E6             4094             MOV     A,@R0
00ED FD             4095             MOV     R5,A
00EE 7C00           4096             MOV     R4,#00H
00F0 7002           4097             JNZ     ?C0180
00F2 8023           4098             SJMP    ?C0242
00F4                4099     ?C0180:
                    4100     ;                       else if(res[LOC[POI]] > 60) res[LOC[POI]] = 1;
                    4101                             ; SOURCE LINE # 225
00F4 D3             4102             SETB    C
00F5 ED             4103             MOV     A,R5
00F6 943C           4104             SUBB    A,#03CH
00F8 EC             4105             MOV     A,R4
00F9 6480           4106             XRL     A,#080H
00FB 9480           4107             SUBB    A,#080H
00FD 4036           4108             JC      ?C0168
00FF                4109     ?C0241:
                    4110     ;               }else if(POI == 5){
                    4111                             ; SOURCE LINE # 226
00FF 8029           4112             SJMP    ?C0243
0101                4113     ?C0179:
0101 E500     F     4114             MOV     A,POI
0103 6405           4115             XRL     A,#05H
0105 702E           4116             JNZ     ?C0168
                    4117     ;                       if(res[LOC[POI]] == 0) res[LOC[POI]] = 60;
                    4118                             ; SOURCE LINE # 227
0107 7400     F     4119             MOV     A,#LOW (LOC)
0109 2500     F     4120             ADD     A,POI
010B F8             4121             MOV     R0,A
010C E6             4122             MOV     A,@R0
010D FF             4123             MOV     R7,A
010E 2400     F     4124             ADD     A,#LOW (res)
0110 F8             4125             MOV     R0,A
0111 E6             4126             MOV     A,@R0
0112 FD             4127             MOV     R5,A
0113 7C00           4128             MOV     R4,#00H
0115 7008           4129             JNZ     ?C0185
0117                4130     ?C0242:
0117 7400     F     4131             MOV     A,#LOW (res)
0119 2F             4132             ADD     A,R7
011A F8             4133             MOV     R0,A
011B 763C           4134             MOV     @R0,#03CH
011D 8016           4135             SJMP    ?C0168
011F                4136     ?C0185:
                    4137     ;                       else if(res[LOC[POI]] > 60) res[LOC[POI]] = 1;
                    4138                             ; SOURCE LINE # 228
011F D3             4139             SETB    C
0120 ED             4140             MOV     A,R5
0121 943C           4141             SUBB    A,#03CH
0123 EC             4142             MOV     A,R4
0124 6480           4143             XRL     A,#080H
0126 9480           4144             SUBB    A,#080H
0128 400B           4145             JC      ?C0168
012A                4146     ?C0243:
012A 7400     F     4147             MOV     A,#LOW (LOC)
012C 2500     F     4148             ADD     A,POI
012E F8             4149             MOV     R0,A
A51 MACRO ASSEMBLER  MAIN                                                                 12/19/2019 15:45:25 PAGE    64

012F E6             4150             MOV     A,@R0
0130 2400     F     4151             ADD     A,#LOW (res)
0132 F8             4152             MOV     R0,A
0133 7601           4153             MOV     @R0,#01H
                    4154     ;               }
                    4155                             ; SOURCE LINE # 229
0135                4156     ?C0168:
                    4157     ;               cls_disy(3);
                    4158                             ; SOURCE LINE # 230
0135 7F03           4159             MOV     R7,#03H
0137 120000   F     4160             LCALL   _cls_disy
                    4161     ;       }
                    4162                             ; SOURCE LINE # 231
013A                4163     ?C0156:
                    4164     ;       
                    4165     ;       if(POI < 3){
                    4166                             ; SOURCE LINE # 233
013A C3             4167             CLR     C
013B E500     F     4168             MOV     A,POI
013D 9403           4169             SUBB    A,#03H
013F 7480           4170             MOV     A,#080H
0141 9480           4171             SUBB    A,#080H
0143 E500     F     4172             MOV     A,POI
0145 5013           4173             JNC     ?C0188
                    4174     ;               show_font_16(1,16*POI,0,HanZi_16[10]);
                    4175                             ; SOURCE LINE # 234
0147 C4             4176             SWAP    A
0148 54F0           4177             ANL     A,#0F0H
014A FD             4178             MOV     R5,A
014B 7500FF   F     4179             MOV     ?_show_font_16?BYTE+03H,#0FFH
014E 750000   F     4180             MOV     ?_show_font_16?BYTE+04H,#HIGH (HanZi_16+0140H)
0151 750000   F     4181             MOV     ?_show_font_16?BYTE+05H,#LOW (HanZi_16+0140H)
0154 E4             4182             CLR     A
0155 FB             4183             MOV     R3,A
0156 7F01           4184             MOV     R7,#01H
                    4185     ;       }else{
                    4186                             ; SOURCE LINE # 235
0158 8013           4187             SJMP    ?C0244
015A                4188     ?C0188:
                    4189     ;               show_font_16(2,16*(POI-3),0,HanZi_16[10]);
                    4190                             ; SOURCE LINE # 236
015A 24FD           4191             ADD     A,#0FDH
015C C4             4192             SWAP    A
015D 54F0           4193             ANL     A,#0F0H
015F FD             4194             MOV     R5,A
0160 7500FF   F     4195             MOV     ?_show_font_16?BYTE+03H,#0FFH
0163 750000   F     4196             MOV     ?_show_font_16?BYTE+04H,#HIGH (HanZi_16+0140H)
0166 750000   F     4197             MOV     ?_show_font_16?BYTE+05H,#LOW (HanZi_16+0140H)
0169 E4             4198             CLR     A
016A FB             4199             MOV     R3,A
016B 7F02           4200             MOV     R7,#02H
016D                4201     ?C0244:
016D 120000   F     4202             LCALL   _show_font_16
                    4203     ;       }
                    4204                             ; SOURCE LINE # 237
0170                4205     ?C0189:
                    4206     ;       
                    4207     ;       //      
                    4208     ;       show_font_16(1,16*0,2,RiZi[0]);
                    4209                             ; SOURCE LINE # 240
0170 7500FF   F     4210             MOV     ?_show_font_16?BYTE+03H,#0FFH
0173 750000   F     4211             MOV     ?_show_font_16?BYTE+04H,#HIGH (RiZi)
0176 750000   F     4212             MOV     ?_show_font_16?BYTE+05H,#LOW (RiZi)
0179 7B02           4213             MOV     R3,#02H
017B E4             4214             CLR     A
017C FD             4215             MOV     R5,A
A51 MACRO ASSEMBLER  MAIN                                                                 12/19/2019 15:45:25 PAGE    65

017D 7F01           4216             MOV     R7,#01H
017F 120000   F     4217             LCALL   _show_font_16
                    4218     ;       show_font_16(1,16*1,2,RiZi[1]);
                    4219                             ; SOURCE LINE # 241
0182 7500FF   F     4220             MOV     ?_show_font_16?BYTE+03H,#0FFH
0185 750000   F     4221             MOV     ?_show_font_16?BYTE+04H,#HIGH (RiZi+020H)
0188 750000   F     4222             MOV     ?_show_font_16?BYTE+05H,#LOW (RiZi+020H)
018B 7B02           4223             MOV     R3,#02H
018D 120000   F     4224             LCALL   L?0256
                    4225     ;       show_font_16(1,16*2,2,RiZi[2]);
                    4226                             ; SOURCE LINE # 242
0190 7500FF   F     4227             MOV     ?_show_font_16?BYTE+03H,#0FFH
0193 750000   F     4228             MOV     ?_show_font_16?BYTE+04H,#HIGH (RiZi+040H)
0196 750000   F     4229             MOV     ?_show_font_16?BYTE+05H,#LOW (RiZi+040H)
0199 7B02           4230             MOV     R3,#02H
019B 7D20           4231             MOV     R5,#020H
019D 7F01           4232             MOV     R7,#01H
019F 120000   F     4233             LCALL   _show_font_16
                    4234     ;       show_font_16(2,16*0,2,RiZi[3]);
                    4235                             ; SOURCE LINE # 243
01A2 7500FF   F     4236             MOV     ?_show_font_16?BYTE+03H,#0FFH
01A5 750000   F     4237             MOV     ?_show_font_16?BYTE+04H,#HIGH (RiZi+060H)
01A8 750000   F     4238             MOV     ?_show_font_16?BYTE+05H,#LOW (RiZi+060H)
01AB 7B02           4239             MOV     R3,#02H
01AD E4             4240             CLR     A
01AE FD             4241             MOV     R5,A
01AF 7F02           4242             MOV     R7,#02H
01B1 120000   F     4243             LCALL   _show_font_16
                    4244     ;       show_font_16(2,16*1,2,RiZi[4]);
                    4245                             ; SOURCE LINE # 244
01B4 7500FF   F     4246             MOV     ?_show_font_16?BYTE+03H,#0FFH
01B7 750000   F     4247             MOV     ?_show_font_16?BYTE+04H,#HIGH (RiZi+080H)
01BA 750000   F     4248             MOV     ?_show_font_16?BYTE+05H,#LOW (RiZi+080H)
01BD 7B02           4249             MOV     R3,#02H
01BF 7D10           4250             MOV     R5,#010H
01C1 7F02           4251             MOV     R7,#02H
01C3 120000   F     4252             LCALL   _show_font_16
                    4253     ;       show_font_16(2,16*2,2,RiZi[5]);
                    4254                             ; SOURCE LINE # 245
01C6 7500FF   F     4255             MOV     ?_show_font_16?BYTE+03H,#0FFH
01C9 750000   F     4256             MOV     ?_show_font_16?BYTE+04H,#HIGH (RiZi+0A0H)
01CC 750000   F     4257             MOV     ?_show_font_16?BYTE+05H,#LOW (RiZi+0A0H)
01CF 7B02           4258             MOV     R3,#02H
01D1 7D20           4259             MOV     R5,#020H
01D3 7F02           4260             MOV     R7,#02H
01D5 120000   F     4261             LCALL   _show_font_16
                    4262     ;       
                    4263     ;       
                    4264     ;       // 
                    4265     ;       // 
                    4266     ;       buf = res[0];
                    4267                             ; SOURCE LINE # 250
01D8 850000   F     4268             MOV     buf?33106,res
                    4269     ;       show_font_8(1,8*1,4,NUM[buf%10]);
                    4270                             ; SOURCE LINE # 251
01DB E500     F     4271             MOV     A,buf?33106
01DD 75F00A         4272             MOV     B,#0AH
01E0 84             4273             DIV     AB
01E1 E5F0           4274             MOV     A,B
01E3 75F010         4275             MOV     B,#010H
01E6 A4             4276             MUL     AB
01E7 2400     F     4277             ADD     A,#LOW (NUM)
01E9 F9             4278             MOV     R1,A
01EA 7400     F     4279             MOV     A,#HIGH (NUM)
01EC 35F0           4280             ADDC    A,B
01EE 7500FF   F     4281             MOV     ?_show_font_8?BYTE+03H,#0FFH
A51 MACRO ASSEMBLER  MAIN                                                                 12/19/2019 15:45:25 PAGE    66

01F1 F500     F     4282             MOV     ?_show_font_8?BYTE+04H,A
01F3 8900     F     4283             MOV     ?_show_font_8?BYTE+05H,R1
01F5 7B04           4284             MOV     R3,#04H
01F7 7D08           4285             MOV     R5,#08H
01F9 7F01           4286             MOV     R7,#01H
01FB 120000   F     4287             LCALL   _show_font_8
                    4288     ;       buf /= 10;
                    4289                             ; SOURCE LINE # 252
01FE E500     F     4290             MOV     A,buf?33106
0200 75F00A         4291             MOV     B,#0AH
0203 84             4292             DIV     AB
0204 F500     F     4293             MOV     buf?33106,A
                    4294     ;       show_font_8(1,8*0,4,NUM[buf%10]);
                    4295                             ; SOURCE LINE # 253
0206 75F00A         4296             MOV     B,#0AH
0209 84             4297             DIV     AB
020A E5F0           4298             MOV     A,B
020C 75F010         4299             MOV     B,#010H
020F A4             4300             MUL     AB
0210 2400     F     4301             ADD     A,#LOW (NUM)
0212 F9             4302             MOV     R1,A
0213 7400     F     4303             MOV     A,#HIGH (NUM)
0215 35F0           4304             ADDC    A,B
0217 7500FF   F     4305             MOV     ?_show_font_8?BYTE+03H,#0FFH
021A F500     F     4306             MOV     ?_show_font_8?BYTE+04H,A
021C 8900     F     4307             MOV     ?_show_font_8?BYTE+05H,R1
021E 7B04           4308             MOV     R3,#04H
0220 E4             4309             CLR     A
0221 FD             4310             MOV     R5,A
0222 7F01           4311             MOV     R7,#01H
0224 120000   F     4312             LCALL   _show_font_8
                    4313     ;       
                    4314     ;       
                    4315     ;       //
                    4316     ;       buf = res[2];
                    4317                             ; SOURCE LINE # 257
0227 850000   F     4318             MOV     buf?33106,res+02H
                    4319     ;       show_font_8(1,8*3,4,NUM[buf%10]);
                    4320                             ; SOURCE LINE # 258
022A E500     F     4321             MOV     A,buf?33106
022C 75F00A         4322             MOV     B,#0AH
022F 84             4323             DIV     AB
0230 E5F0           4324             MOV     A,B
0232 75F010         4325             MOV     B,#010H
0235 A4             4326             MUL     AB
0236 2400     F     4327             ADD     A,#LOW (NUM)
0238 F9             4328             MOV     R1,A
0239 7400     F     4329             MOV     A,#HIGH (NUM)
023B 35F0           4330             ADDC    A,B
023D 7500FF   F     4331             MOV     ?_show_font_8?BYTE+03H,#0FFH
0240 F500     F     4332             MOV     ?_show_font_8?BYTE+04H,A
0242 8900     F     4333             MOV     ?_show_font_8?BYTE+05H,R1
0244 7B04           4334             MOV     R3,#04H
0246 7D18           4335             MOV     R5,#018H
0248 7F01           4336             MOV     R7,#01H
024A 120000   F     4337             LCALL   _show_font_8
                    4338     ;       buf /= 10;
                    4339                             ; SOURCE LINE # 259
024D E500     F     4340             MOV     A,buf?33106
024F 75F00A         4341             MOV     B,#0AH
0252 84             4342             DIV     AB
0253 F500     F     4343             MOV     buf?33106,A
                    4344     ;       show_font_8(1,8*2,4,NUM[buf%10]);
                    4345                             ; SOURCE LINE # 260
0255 75F00A         4346             MOV     B,#0AH
0258 84             4347             DIV     AB
A51 MACRO ASSEMBLER  MAIN                                                                 12/19/2019 15:45:25 PAGE    67

0259 E5F0           4348             MOV     A,B
025B 75F010         4349             MOV     B,#010H
025E A4             4350             MUL     AB
025F 2400     F     4351             ADD     A,#LOW (NUM)
0261 F9             4352             MOV     R1,A
0262 7400     F     4353             MOV     A,#HIGH (NUM)
0264 35F0           4354             ADDC    A,B
0266 7500FF   F     4355             MOV     ?_show_font_8?BYTE+03H,#0FFH
0269 F500     F     4356             MOV     ?_show_font_8?BYTE+04H,A
026B 8900     F     4357             MOV     ?_show_font_8?BYTE+05H,R1
026D 7B04           4358             MOV     R3,#04H
026F 7D10           4359             MOV     R5,#010H
0271 7F01           4360             MOV     R7,#01H
0273 120000   F     4361             LCALL   _show_font_8
                    4362     ;       
                    4363     ;       
                    4364     ;       //
                    4365     ;       buf = res[3];
                    4366                             ; SOURCE LINE # 264
0276 850000   F     4367             MOV     buf?33106,res+03H
                    4368     ;       show_font_8(1,8*5,4,NUM[buf%10]);
                    4369                             ; SOURCE LINE # 265
0279 E500     F     4370             MOV     A,buf?33106
027B 75F00A         4371             MOV     B,#0AH
027E 84             4372             DIV     AB
027F E5F0           4373             MOV     A,B
0281 75F010         4374             MOV     B,#010H
0284 A4             4375             MUL     AB
0285 2400     F     4376             ADD     A,#LOW (NUM)
0287 F9             4377             MOV     R1,A
0288 7400     F     4378             MOV     A,#HIGH (NUM)
028A 35F0           4379             ADDC    A,B
028C 7500FF   F     4380             MOV     ?_show_font_8?BYTE+03H,#0FFH
028F F500     F     4381             MOV     ?_show_font_8?BYTE+04H,A
0291 8900     F     4382             MOV     ?_show_font_8?BYTE+05H,R1
0293 7B04           4383             MOV     R3,#04H
0295 7D28           4384             MOV     R5,#028H
0297 7F01           4385             MOV     R7,#01H
0299 120000   F     4386             LCALL   _show_font_8
                    4387     ;       buf /= 10;
                    4388                             ; SOURCE LINE # 266
029C E500     F     4389             MOV     A,buf?33106
029E 75F00A         4390             MOV     B,#0AH
02A1 84             4391             DIV     AB
02A2 F500     F     4392             MOV     buf?33106,A
                    4393     ;       show_font_8(1,8*4,4,NUM[buf%10]);
                    4394                             ; SOURCE LINE # 267
02A4 75F00A         4395             MOV     B,#0AH
02A7 84             4396             DIV     AB
02A8 E5F0           4397             MOV     A,B
02AA 75F010         4398             MOV     B,#010H
02AD A4             4399             MUL     AB
02AE 2400     F     4400             ADD     A,#LOW (NUM)
02B0 F9             4401             MOV     R1,A
02B1 7400     F     4402             MOV     A,#HIGH (NUM)
02B3 35F0           4403             ADDC    A,B
02B5 7500FF   F     4404             MOV     ?_show_font_8?BYTE+03H,#0FFH
02B8 F500     F     4405             MOV     ?_show_font_8?BYTE+04H,A
02BA 8900     F     4406             MOV     ?_show_font_8?BYTE+05H,R1
02BC 7B04           4407             MOV     R3,#04H
02BE 7D20           4408             MOV     R5,#020H
02C0 7F01           4409             MOV     R7,#01H
02C2 120000   F     4410             LCALL   _show_font_8
                    4411     ;       
                    4412     ;       //
                    4413     ;       // 
A51 MACRO ASSEMBLER  MAIN                                                                 12/19/2019 15:45:25 PAGE    68

                    4414     ;       buf = res[4];
                    4415                             ; SOURCE LINE # 271
02C5 850000   F     4416             MOV     buf?33106,res+04H
                    4417     ;       show_font_8(2,8*1,4,NUM[buf%10]);
                    4418                             ; SOURCE LINE # 272
02C8 E500     F     4419             MOV     A,buf?33106
02CA 75F00A         4420             MOV     B,#0AH
02CD 84             4421             DIV     AB
02CE E5F0           4422             MOV     A,B
02D0 75F010         4423             MOV     B,#010H
02D3 A4             4424             MUL     AB
02D4 2400     F     4425             ADD     A,#LOW (NUM)
02D6 F9             4426             MOV     R1,A
02D7 7400     F     4427             MOV     A,#HIGH (NUM)
02D9 35F0           4428             ADDC    A,B
02DB 7500FF   F     4429             MOV     ?_show_font_8?BYTE+03H,#0FFH
02DE F500     F     4430             MOV     ?_show_font_8?BYTE+04H,A
02E0 8900     F     4431             MOV     ?_show_font_8?BYTE+05H,R1
02E2 7B04           4432             MOV     R3,#04H
02E4 7D08           4433             MOV     R5,#08H
02E6 7F02           4434             MOV     R7,#02H
02E8 120000   F     4435             LCALL   _show_font_8
                    4436     ;       buf /= 10;
                    4437                             ; SOURCE LINE # 273
02EB E500     F     4438             MOV     A,buf?33106
02ED 75F00A         4439             MOV     B,#0AH
02F0 84             4440             DIV     AB
02F1 F500     F     4441             MOV     buf?33106,A
                    4442     ;       show_font_8(2,8*0,4,NUM[buf%10]);
                    4443                             ; SOURCE LINE # 274
02F3 75F00A         4444             MOV     B,#0AH
02F6 84             4445             DIV     AB
02F7 E5F0           4446             MOV     A,B
02F9 75F010         4447             MOV     B,#010H
02FC A4             4448             MUL     AB
02FD 2400     F     4449             ADD     A,#LOW (NUM)
02FF F9             4450             MOV     R1,A
0300 7400     F     4451             MOV     A,#HIGH (NUM)
0302 35F0           4452             ADDC    A,B
0304 7500FF   F     4453             MOV     ?_show_font_8?BYTE+03H,#0FFH
0307 F500     F     4454             MOV     ?_show_font_8?BYTE+04H,A
0309 8900     F     4455             MOV     ?_show_font_8?BYTE+05H,R1
030B 7B04           4456             MOV     R3,#04H
030D E4             4457             CLR     A
030E FD             4458             MOV     R5,A
030F 7F02           4459             MOV     R7,#02H
0311 120000   F     4460             LCALL   _show_font_8
                    4461     ;       
                    4462     ;       //
                    4463     ;       buf = res[5];
                    4464                             ; SOURCE LINE # 277
0314 850000   F     4465             MOV     buf?33106,res+05H
                    4466     ;       show_font_8(2,8*3,4,NUM[buf%10]);
                    4467                             ; SOURCE LINE # 278
0317 E500     F     4468             MOV     A,buf?33106
0319 75F00A         4469             MOV     B,#0AH
031C 84             4470             DIV     AB
031D E5F0           4471             MOV     A,B
031F 75F010         4472             MOV     B,#010H
0322 A4             4473             MUL     AB
0323 2400     F     4474             ADD     A,#LOW (NUM)
0325 F9             4475             MOV     R1,A
0326 7400     F     4476             MOV     A,#HIGH (NUM)
0328 35F0           4477             ADDC    A,B
032A 7500FF   F     4478             MOV     ?_show_font_8?BYTE+03H,#0FFH
032D F500     F     4479             MOV     ?_show_font_8?BYTE+04H,A
A51 MACRO ASSEMBLER  MAIN                                                                 12/19/2019 15:45:25 PAGE    69

032F 8900     F     4480             MOV     ?_show_font_8?BYTE+05H,R1
0331 7B04           4481             MOV     R3,#04H
0333 7D18           4482             MOV     R5,#018H
0335 7F02           4483             MOV     R7,#02H
0337 120000   F     4484             LCALL   _show_font_8
                    4485     ;       buf /= 10;
                    4486                             ; SOURCE LINE # 279
033A E500     F     4487             MOV     A,buf?33106
033C 75F00A         4488             MOV     B,#0AH
033F 84             4489             DIV     AB
0340 F500     F     4490             MOV     buf?33106,A
                    4491     ;       show_font_8(2,8*2,4,NUM[buf%10]);
                    4492                             ; SOURCE LINE # 280
0342 75F00A         4493             MOV     B,#0AH
0345 84             4494             DIV     AB
0346 E5F0           4495             MOV     A,B
0348 75F010         4496             MOV     B,#010H
034B A4             4497             MUL     AB
034C 2400     F     4498             ADD     A,#LOW (NUM)
034E F9             4499             MOV     R1,A
034F 7400     F     4500             MOV     A,#HIGH (NUM)
0351 35F0           4501             ADDC    A,B
0353 7500FF   F     4502             MOV     ?_show_font_8?BYTE+03H,#0FFH
0356 F500     F     4503             MOV     ?_show_font_8?BYTE+04H,A
0358 8900     F     4504             MOV     ?_show_font_8?BYTE+05H,R1
035A 7B04           4505             MOV     R3,#04H
035C 7D10           4506             MOV     R5,#010H
035E 7F02           4507             MOV     R7,#02H
0360 120000   F     4508             LCALL   _show_font_8
                    4509     ;       
                    4510     ;       
                    4511     ;       //
                    4512     ;       buf = res[6];
                    4513                             ; SOURCE LINE # 284
0363 850000   F     4514             MOV     buf?33106,res+06H
                    4515     ;       show_font_8(2,8*5,4,NUM[buf%10]);
                    4516                             ; SOURCE LINE # 285
0366 E500     F     4517             MOV     A,buf?33106
0368 75F00A         4518             MOV     B,#0AH
036B 84             4519             DIV     AB
036C E5F0           4520             MOV     A,B
036E 75F010         4521             MOV     B,#010H
0371 A4             4522             MUL     AB
0372 2400     F     4523             ADD     A,#LOW (NUM)
0374 F9             4524             MOV     R1,A
0375 7400     F     4525             MOV     A,#HIGH (NUM)
0377 35F0           4526             ADDC    A,B
0379 7500FF   F     4527             MOV     ?_show_font_8?BYTE+03H,#0FFH
037C F500     F     4528             MOV     ?_show_font_8?BYTE+04H,A
037E 8900     F     4529             MOV     ?_show_font_8?BYTE+05H,R1
0380 7B04           4530             MOV     R3,#04H
0382 7D28           4531             MOV     R5,#028H
0384 7F02           4532             MOV     R7,#02H
0386 120000   F     4533             LCALL   _show_font_8
                    4534     ;       buf /= 10;
                    4535                             ; SOURCE LINE # 286
0389 E500     F     4536             MOV     A,buf?33106
038B 75F00A         4537             MOV     B,#0AH
038E 84             4538             DIV     AB
038F F500     F     4539             MOV     buf?33106,A
                    4540     ;       show_font_8(2,8*4,4,NUM[buf%10]);
                    4541                             ; SOURCE LINE # 287
0391 75F00A         4542             MOV     B,#0AH
0394 84             4543             DIV     AB
0395 E5F0           4544             MOV     A,B
0397 75F010         4545             MOV     B,#010H
A51 MACRO ASSEMBLER  MAIN                                                                 12/19/2019 15:45:25 PAGE    70

039A A4             4546             MUL     AB
039B 2400     F     4547             ADD     A,#LOW (NUM)
039D F9             4548             MOV     R1,A
039E 7400     F     4549             MOV     A,#HIGH (NUM)
03A0 35F0           4550             ADDC    A,B
03A2 7500FF   F     4551             MOV     ?_show_font_8?BYTE+03H,#0FFH
03A5 F500     F     4552             MOV     ?_show_font_8?BYTE+04H,A
03A7 8900     F     4553             MOV     ?_show_font_8?BYTE+05H,R1
03A9 7B04           4554             MOV     R3,#04H
03AB 7D20           4555             MOV     R5,#020H
03AD 7F02           4556             MOV     R7,#02H
03AF 020000   F     4557             LJMP    _show_font_8
                    4558     ; END OF _set_view
                    4559     
                    4560     ; }
                    4561     ; 
                    4562     ; 
                    4563     ; 
                    4564     ; void key_scan(){
                    4565     
----                4566             RSEG  ?PR?key_scan?MAIN
0000                4567     key_scan:
                    4568             USING   0
                    4569                             ; SOURCE LINE # 292
                    4570     ;       LED = 0;
                    4571                             ; SOURCE LINE # 293
0000 C2A7           4572             CLR     LED
                    4573     ;       if(UP == 0 || DOWN == 0 || LEFT == 0 || RIGHT == 0){
                    4574                             ; SOURCE LINE # 294
0002 30920C         4575             JNB     UP,?C0192
0005 309309         4576             JNB     DOWN,?C0192
0008 309406         4577             JNB     LEFT,?C0192
000B 309503         4578             JNB     RIGHT,$ + 6H
000E 020000   F     4579             LJMP    ?C0202
0011                4580     ?C0192:
                    4581     ;               dely_ms(50);
                    4582                             ; SOURCE LINE # 295
0011 7F32           4583             MOV     R7,#032H
0013 7E00           4584             MOV     R6,#00H
0015 120000   F     4585             LCALL   _dely_ms
                    4586     ;               if(UP == 0 || DOWN == 0 || LEFT == 0 || RIGHT == 0){
                    4587                             ; SOURCE LINE # 296
0018 30920C         4588             JNB     UP,?C0194
001B 309309         4589             JNB     DOWN,?C0194
001E 309406         4590             JNB     LEFT,?C0194
0021 309503         4591             JNB     RIGHT,$ + 6H
0024 020000   F     4592             LJMP    ?C0202
0027                4593     ?C0194:
                    4594     ;                       if(UP == 0){
                    4595                             ; SOURCE LINE # 297
0027 20921B         4596             JB      UP,?C0195
                    4597     ;                               cla_[Y_POI][X_POI] =
                    4598                             ; SOURCE LINE # 298
002A E500     F     4599             MOV     A,Y_POI
002C 75F003         4600             MOV     B,#03H
002F A4             4601             MUL     AB
0030 2400     F     4602             ADD     A,#LOW (cla_)
0032 2500     F     4603             ADD     A,X_POI
0034 F8             4604             MOV     R0,A
0035 E6             4605             MOV     A,@R0
0036 2401           4606             ADD     A,#01H
0038 FF             4607             MOV     R7,A
0039 E4             4608             CLR     A
003A 33             4609             RLC     A
003B FE             4610             MOV     R6,A
003C E500     F     4611             MOV     A,X_POI
A51 MACRO ASSEMBLER  MAIN                                                                 12/19/2019 15:45:25 PAGE    71

003E 900000   F     4612             MOV     DPTR,#MAX_LOC
0041 93             4613             MOVC    A,@A+DPTR
0042 FD             4614             MOV     R5,A
                    4615     ;                                       (cla_[Y_POI][X_POI] + 1) % MAX_LOC[X_POI];
                    4616     ;                       }else if(DOWN == 0){
                    4617                             ; SOURCE LINE # 300
0043 8022           4618             SJMP    ?C0245
0045                4619     ?C0195:
0045 209332         4620             JB      DOWN,?C0197
                    4621     ;                               cla_[Y_POI][X_POI] = (cla_[Y_POI][X_POI] + MAX_LOC[X_POI] -
                              1) % MAX_LOC[X_POI];
                    4622                             ; SOURCE LINE # 301
0048 E500     F     4623             MOV     A,Y_POI
004A 75F003         4624             MOV     B,#03H
004D A4             4625             MUL     AB
004E 2400     F     4626             ADD     A,#LOW (cla_)
0050 2500     F     4627             ADD     A,X_POI
0052 F8             4628             MOV     R0,A
0053 E6             4629             MOV     A,@R0
0054 FF             4630             MOV     R7,A
0055 E500     F     4631             MOV     A,X_POI
0057 900000   F     4632             MOV     DPTR,#MAX_LOC
005A 93             4633             MOVC    A,@A+DPTR
005B FD             4634             MOV     R5,A
005C 2F             4635             ADD     A,R7
005D FF             4636             MOV     R7,A
005E E4             4637             CLR     A
005F 33             4638             RLC     A
0060 CF             4639             XCH     A,R7
0061 24FF           4640             ADD     A,#0FFH
0063 CF             4641             XCH     A,R7
0064 34FF           4642             ADDC    A,#0FFH
0066 FE             4643             MOV     R6,A
0067                4644     ?C0245:
0067 7C00           4645             MOV     R4,#00H
0069 120000   F     4646             LCALL   ?C?UIDIV
006C E500     F     4647             MOV     A,Y_POI
006E 75F003         4648             MOV     B,#03H
0071 A4             4649             MUL     AB
0072 2400     F     4650             ADD     A,#LOW (cla_)
0074 2500     F     4651             ADD     A,X_POI
0076 F8             4652             MOV     R0,A
0077 A605           4653             MOV     @R0,AR5
                    4654     ;                       }else if(LEFT == 0){
                    4655                             ; SOURCE LINE # 302
0079 22             4656             RET     
007A                4657     ?C0197:
007A 209406         4658             JB      LEFT,?C0199
                    4659     ;                               XY_POI = (XY_POI + 8) % 9;
                    4660                             ; SOURCE LINE # 303
007D E500     F     4661             MOV     A,XY_POI
007F 2408           4662             ADD     A,#08H
                    4663     ;                               X_POI = XLOC[XY_POI];
                    4664                             ; SOURCE LINE # 304
                    4665     ;                               Y_POI = YLOC[XY_POI];
                    4666                             ; SOURCE LINE # 305
                    4667     ;                       }else if(RIGHT == 0){
                    4668                             ; SOURCE LINE # 306
0081 8007           4669             SJMP    ?C0246
0083                4670     ?C0199:
0083 209521         4671             JB      RIGHT,?C0202
                    4672     ;                               XY_POI = (XY_POI + 1) % 9;
                    4673                             ; SOURCE LINE # 307
0086 E500     F     4674             MOV     A,XY_POI
0088 2401           4675             ADD     A,#01H
008A                4676     ?C0246:
A51 MACRO ASSEMBLER  MAIN                                                                 12/19/2019 15:45:25 PAGE    72

008A FF             4677             MOV     R7,A
008B E4             4678             CLR     A
008C 33             4679             RLC     A
008D FE             4680             MOV     R6,A
008E 7C00           4681             MOV     R4,#00H
0090 7D09           4682             MOV     R5,#09H
0092 120000   F     4683             LCALL   ?C?UIDIV
0095 8D00     F     4684             MOV     XY_POI,R5
                    4685     ;                               X_POI = XLOC[XY_POI];
                    4686                             ; SOURCE LINE # 308
0097 E500     F     4687             MOV     A,XY_POI
0099 900000   F     4688             MOV     DPTR,#XLOC
009C 93             4689             MOVC    A,@A+DPTR
009D F500     F     4690             MOV     X_POI,A
                    4691     ;                               Y_POI = YLOC[XY_POI];
                    4692                             ; SOURCE LINE # 309
009F E500     F     4693             MOV     A,XY_POI
00A1 900000   F     4694             MOV     DPTR,#YLOC
00A4 93             4695             MOVC    A,@A+DPTR
00A5 F500     F     4696             MOV     Y_POI,A
                    4697     ;                       }
                    4698                             ; SOURCE LINE # 310
                    4699     ;               }
                    4700                             ; SOURCE LINE # 311
                    4701     ;       }
                    4702                             ; SOURCE LINE # 312
                    4703     ; }
                    4704                             ; SOURCE LINE # 313
00A7                4705     ?C0202:
00A7 22             4706             RET     
                    4707     ; END OF key_scan
                    4708     
                    4709     ; 
                    4710     ; void main(void){
                    4711     
----                4712             RSEG  ?PR?main?MAIN
0000                4713     main:
                    4714             USING   0
                    4715                             ; SOURCE LINE # 315
                    4716     ;       uchar x= 16,y,z=0,flag;
                    4717                             ; SOURCE LINE # 316
0000 750010   F     4718             MOV     x?35107,#010H
0003 E4             4719             CLR     A
0004 F500     F     4720             MOV     z?35109,A
                    4721     ;       uchar buf_time[3];
                    4722     ;       int buf;
                    4723     ;       
                    4724     ;       flag = 0;
                    4725                             ; SOURCE LINE # 320
0006 F500     F     4726             MOV     flag?35110,A
                    4727     ;       //  
                    4728     ;       select_side(3);
                    4729                             ; SOURCE LINE # 322
0008 7F03           4730             MOV     R7,#03H
000A 120000   F     4731             LCALL   _select_side
                    4732     ;       led_init();     
                    4733                             ; SOURCE LINE # 323
000D 120000   F     4734             LCALL   led_init
                    4735     ;       show_first_word();
                    4736                             ; SOURCE LINE # 324
0010 120000   F     4737             LCALL   show_first_word
                    4738     ;       
                    4739     ;       // 
                    4740     ;       IT0 = 1;        //1
                    4741                             ; SOURCE LINE # 327
0013 D288           4742             SETB    IT0
A51 MACRO ASSEMBLER  MAIN                                                                 12/19/2019 15:45:25 PAGE    73

                    4743     ;       EX0 = 1;        //1
                    4744                             ; SOURCE LINE # 328
0015 D2A8           4745             SETB    EX0
                    4746     ;       EA = 1;         //
                    4747                             ; SOURCE LINE # 329
0017 D2AF           4748             SETB    EA
0019                4749     ?C0203:
                    4750     ;       
                    4751     ;       while(1){
                    4752                             ; SOURCE LINE # 331
                    4753     ;               
                    4754     ;               if(SWITCH){
                    4755                             ; SOURCE LINE # 333
0019 E500     F     4756             MOV     A,SWITCH
001B 6060           4757             JZ      ?C0205
                    4758     ;                       if(UP == 0 || DOWN == 0 || LEFT == 0 || RIGHT == 0 || EXIT == 0){
                    4759                             ; SOURCE LINE # 334
001D 30920C         4760             JNB     UP,?C0207
0020 309309         4761             JNB     DOWN,?C0207
0023 309406         4762             JNB     LEFT,?C0207
0026 309503         4763             JNB     RIGHT,?C0207
0029 20964A         4764             JB      EXIT,?C0206
002C                4765     ?C0207:
                    4766     ;                       
                    4767     ;                               dely_ms(100);
                    4768                             ; SOURCE LINE # 336
002C 7F64           4769             MOV     R7,#064H
002E 7E00           4770             MOV     R6,#00H
0030 120000   F     4771             LCALL   _dely_ms
                    4772     ;                               if(UP == 0 || DOWN == 0 || LEFT == 0 || RIGHT == 0 || EXIT 
                             == 0){
                    4773                             ; SOURCE LINE # 337
0033 30920C         4774             JNB     UP,?C0209
0036 309309         4775             JNB     DOWN,?C0209
0039 309406         4776             JNB     LEFT,?C0209
003C 309503         4777             JNB     RIGHT,?C0209
003F 2096D7         4778             JB      EXIT,?C0203
0042                4779     ?C0209:
                    4780     ;                                       if(UP == 0)
                    4781                             ; SOURCE LINE # 338
0042 209204         4782             JB      UP,?C0210
                    4783     ;                                               set_view(1);
                    4784                             ; SOURCE LINE # 339
0045 7F01           4785             MOV     R7,#01H
0047 802F           4786             SJMP    ?C0250
0049                4787     ?C0210:
                    4788     ;                                       else if(DOWN == 0)
                    4789                             ; SOURCE LINE # 340
0049 209304         4790             JB      DOWN,?C0212
                    4791     ;                                               set_view(2);
                    4792                             ; SOURCE LINE # 341
004C 7F02           4793             MOV     R7,#02H
004E                4794     ?C0247:
004E 8028           4795             SJMP    ?C0250
0050                4796     ?C0212:
                    4797     ;                                       else if(LEFT == 0)
                    4798                             ; SOURCE LINE # 342
0050 209404         4799             JB      LEFT,?C0214
                    4800     ;                                               set_view(3);
                    4801                             ; SOURCE LINE # 343
0053 7F03           4802             MOV     R7,#03H
0055                4803     ?C0248:
0055 8021           4804             SJMP    ?C0250
0057                4805     ?C0214:
                    4806     ;                                       else if(RIGHT == 0)
                    4807                             ; SOURCE LINE # 344
A51 MACRO ASSEMBLER  MAIN                                                                 12/19/2019 15:45:25 PAGE    74

0057 209504         4808             JB      RIGHT,?C0216
                    4809     ;                                               set_view(4);
                    4810                             ; SOURCE LINE # 345
005A 7F04           4811             MOV     R7,#04H
005C                4812     ?C0249:
005C 801A           4813             SJMP    ?C0250
005E                4814     ?C0216:
                    4815     ;                                       else if(EXIT == 0){
                    4816                             ; SOURCE LINE # 346
005E 2096B8         4817             JB      EXIT,?C0203
                    4818     ;                                               SWITCH = 0;
                    4819                             ; SOURCE LINE # 347
0061 E4             4820             CLR     A
0062 F500     F     4821             MOV     SWITCH,A
                    4822     ;                                               EA = 1;
                    4823                             ; SOURCE LINE # 348
0064 D2AF           4824             SETB    EA
                    4825     ;                                               LED = 1;
                    4826                             ; SOURCE LINE # 349
0066 D2A7           4827             SETB    LED
                    4828     ;                                               last_val = 0;
                    4829                             ; SOURCE LINE # 350
0068 F500     F     4830             MOV     last_val,A
006A F500     F     4831             MOV     last_val+01H,A
                    4832     ;                                               // 
                    4833     ;                                               //for(y = 0 ; y < 7 ; ++y)
                    4834     ;                                               //      res[y] = Dec_BCD(res[y]);
                    4835     ;                                               write_time(res);
                    4836                             ; SOURCE LINE # 354
006C FB             4837             MOV     R3,A
006D 7A00     F     4838             MOV     R2,#HIGH (res)
006F 7900     F     4839             MOV     R1,#LOW (res)
0071 120000   F     4840             LCALL   _write_time
                    4841     ;                                       }
                    4842                             ; SOURCE LINE # 355
                    4843     ;                               }
                    4844                             ; SOURCE LINE # 356
                    4845     ;                       }else{
                    4846                             ; SOURCE LINE # 357
0074 80A3           4847             SJMP    ?C0203
0076                4848     ?C0206:
                    4849     ;                               set_view(0);
                    4850                             ; SOURCE LINE # 358
0076 E4             4851             CLR     A
0077 FF             4852             MOV     R7,A
0078                4853     ?C0250:
0078 120000   F     4854             LCALL   _set_view
                    4855     ;                       }
                    4856                             ; SOURCE LINE # 359
                    4857     ;                       
                    4858     ;               }else{
                    4859                             ; SOURCE LINE # 361
007B 809C           4860             SJMP    ?C0203
007D                4861     ?C0205:
                    4862     ;                       read_time(res);
                    4863                             ; SOURCE LINE # 362
007D 7B00           4864             MOV     R3,#00H
007F 7A00     F     4865             MOV     R2,#HIGH (res)
0081 7900     F     4866             MOV     R1,#LOW (res)
0083 120000   F     4867             LCALL   _read_time
                    4868     ;                       //for(y = 0 ; y < 7 ; ++y)
                    4869     ;                               //res[y] = BCD_Decimal(res[y]);
                    4870     ;                       key_scan();
                    4871                             ; SOURCE LINE # 365
0086 120000   F     4872             LCALL   key_scan
                    4873     ;                       drmatic_display();
A51 MACRO ASSEMBLER  MAIN                                                                 12/19/2019 15:45:25 PAGE    75

                    4874                             ; SOURCE LINE # 366
0089 120000   F     4875             LCALL   drmatic_display
                    4876     ;                       show_temper();
                    4877                             ; SOURCE LINE # 367
008C 120000   F     4878             LCALL   show_temper
                    4879     ;                       if(on_time()){
                    4880                             ; SOURCE LINE # 368
008F 120000   F     4881             LCALL   on_time
0092 EF             4882             MOV     A,R7
0093 600C           4883             JZ      ?C0221
                    4884     ;                               flag = 1;
                    4885                             ; SOURCE LINE # 369
0095 750001   F     4886             MOV     flag?35110,#01H
                    4887     ;                               buf_time[2] = res[2];
                    4888                             ; SOURCE LINE # 370
0098 850000   F     4889             MOV     buf_time?35111+02H,res+02H
                    4890     ;                               buf_time[1] = res[1];
                    4891                             ; SOURCE LINE # 371
009B 850000   F     4892             MOV     buf_time?35111+01H,res+01H
                    4893     ;                               buf_time[0] = res[0];
                    4894                             ; SOURCE LINE # 372
009E 850000   F     4895             MOV     buf_time?35111,res
                    4896     ;                       }
                    4897                             ; SOURCE LINE # 373
00A1                4898     ?C0221:
                    4899     ;                       if(flag){
                    4900                             ; SOURCE LINE # 374
00A1 E500     F     4901             MOV     A,flag?35110
00A3 7003           4902             JNZ     $ + 5H
00A5 020000   F     4903             LJMP    ?C0222
                    4904     ;                               buf = (res[2]*60*60 + res[1]*60 + res[0]) 
                    4905                             ; SOURCE LINE # 375
00A8 E500     F     4906             MOV     A,buf_time?35111+01H
00AA 75F03C         4907             MOV     B,#03CH
00AD A4             4908             MUL     AB
00AE FB             4909             MOV     R3,A
00AF AAF0           4910             MOV     R2,B
00B1 AE00     F     4911             MOV     R6,buf_time?35111+02H
00B3 E500     F     4912             MOV     A,buf_time?35111+02H
00B5 75F00E         4913             MOV     B,#0EH
00B8 A4             4914             MUL     AB
00B9 CE             4915             XCH     A,R6
00BA 75F010         4916             MOV     B,#010H
00BD A4             4917             MUL     AB
00BE FF             4918             MOV     R7,A
00BF E5F0           4919             MOV     A,B
00C1 2E             4920             ADD     A,R6
00C2 FE             4921             MOV     R6,A
00C3 EF             4922             MOV     A,R7
00C4 2B             4923             ADD     A,R3
00C5 FF             4924             MOV     R7,A
00C6 EE             4925             MOV     A,R6
00C7 3A             4926             ADDC    A,R2
00C8 FE             4927             MOV     R6,A
00C9 7C00           4928             MOV     R4,#00H
00CB EF             4929             MOV     A,R7
00CC 2500     F     4930             ADD     A,buf_time?35111
00CE FB             4931             MOV     R3,A
00CF EC             4932             MOV     A,R4
00D0 3E             4933             ADDC    A,R6
00D1 FA             4934             MOV     R2,A
00D2 E500     F     4935             MOV     A,res+01H
00D4 75F03C         4936             MOV     B,#03CH
00D7 A4             4937             MUL     AB
00D8 F582           4938             MOV     DPL,A
00DA 85F083         4939             MOV     DPH,B
A51 MACRO ASSEMBLER  MAIN                                                                 12/19/2019 15:45:25 PAGE    76

00DD AE00     F     4940             MOV     R6,res+02H
00DF E500     F     4941             MOV     A,res+02H
00E1 75F00E         4942             MOV     B,#0EH
00E4 A4             4943             MUL     AB
00E5 CE             4944             XCH     A,R6
00E6 75F010         4945             MOV     B,#010H
00E9 A4             4946             MUL     AB
00EA FF             4947             MOV     R7,A
00EB E5F0           4948             MOV     A,B
00ED 2E             4949             ADD     A,R6
00EE FE             4950             MOV     R6,A
00EF EF             4951             MOV     A,R7
00F0 2582           4952             ADD     A,DPL
00F2 FF             4953             MOV     R7,A
00F3 EE             4954             MOV     A,R6
00F4 3583           4955             ADDC    A,DPH
00F6 FE             4956             MOV     R6,A
00F7 EF             4957             MOV     A,R7
00F8 2500     F     4958             ADD     A,res
00FA FF             4959             MOV     R7,A
00FB EC             4960             MOV     A,R4
00FC 3E             4961             ADDC    A,R6
00FD CF             4962             XCH     A,R7
00FE C3             4963             CLR     C
00FF 9B             4964             SUBB    A,R3
0100 CF             4965             XCH     A,R7
0101 9A             4966             SUBB    A,R2
0102 FE             4967             MOV     R6,A
                    4968     ;---- Variable 'buf?35112' assigned to Register 'R6/R7' ----
                    4969     ;                                       - (buf_time[2]*60*60 + buf_time[1]*60 + buf_time[0]
                             );
                    4970     ;                               if(buf<0) buf = -buf;
                    4971                             ; SOURCE LINE # 377
0103 C3             4972             CLR     C
0104 6480           4973             XRL     A,#080H
0106 9480           4974             SUBB    A,#080H
0108 5007           4975             JNC     ?C0223
010A C3             4976             CLR     C
010B E4             4977             CLR     A
010C 9F             4978             SUBB    A,R7
010D FF             4979             MOV     R7,A
010E E4             4980             CLR     A
010F 9E             4981             SUBB    A,R6
0110 FE             4982             MOV     R6,A
0111                4983     ?C0223:
                    4984     ;                               if(buf <= 5){
                    4985                             ; SOURCE LINE # 378
0111 D3             4986             SETB    C
0112 EF             4987             MOV     A,R7
0113 9405           4988             SUBB    A,#05H
0115 EE             4989             MOV     A,R6
0116 6480           4990             XRL     A,#080H
0118 9480           4991             SUBB    A,#080H
011A 5004           4992             JNC     ?C0224
                    4993     ;                                       SOUND = 0;
                    4994                             ; SOURCE LINE # 379
011C C290           4995             CLR     SOUND
                    4996     ;                               }else {
                    4997                             ; SOURCE LINE # 380
011E 8005           4998             SJMP    ?C0222
0120                4999     ?C0224:
                    5000     ;                                       SOUND =1;
                    5001                             ; SOURCE LINE # 381
0120 D290           5002             SETB    SOUND
                    5003     ;                                       flag = 0;
                    5004                             ; SOURCE LINE # 382
A51 MACRO ASSEMBLER  MAIN                                                                 12/19/2019 15:45:25 PAGE    77

0122 E4             5005             CLR     A
0123 F500     F     5006             MOV     flag?35110,A
                    5007     ;                               }       
                    5008                             ; SOURCE LINE # 383
                    5009     ;                       }
                    5010                             ; SOURCE LINE # 384
0125                5011     ?C0222:
                    5012     ;                       dely_ms(50);
                    5013                             ; SOURCE LINE # 385
0125 7F32           5014             MOV     R7,#032H
0127 7E00           5015             MOV     R6,#00H
0129 120000   F     5016             LCALL   _dely_ms
                    5017     ;               }
                    5018                             ; SOURCE LINE # 386
                    5019     ;       }
                    5020                             ; SOURCE LINE # 387
012C 020000   F     5021             LJMP    ?C0203
                    5022     ; END OF main
                    5023     
----                5024     CSEG    AT      00003H
0003 020000   F     5025             LJMP    int0_fun
                    5026     
                    5027     ;               
                    5028     ;       return;
                    5029     ; }
                    5030     ; 
                    5031     ; 
                    5032     ; void int0_fun(void) interrupt 0 {
                    5033     
----                5034             RSEG  ?PR?int0_fun?MAIN
                    5035             USING   0
0000                5036     int0_fun:
0000 C0E0           5037             PUSH    ACC
0002 C0F0           5038             PUSH    B
0004 C083           5039             PUSH    DPH
0006 C082           5040             PUSH    DPL
0008 C0D0           5041             PUSH    PSW
000A 75D000         5042             MOV     PSW,#00H
000D C000           5043             PUSH    AR0
000F C001           5044             PUSH    AR1
0011 C002           5045             PUSH    AR2
0013 C003           5046             PUSH    AR3
0015 C004           5047             PUSH    AR4
0017 C005           5048             PUSH    AR5
0019 C006           5049             PUSH    AR6
001B C007           5050             PUSH    AR7
                    5051             USING   0
                    5052                             ; SOURCE LINE # 393
                    5053     ;       EA = 0;
                    5054                             ; SOURCE LINE # 394
001D C2AF           5055             CLR     EA
                    5056     ;       set_view(0);
                    5057                             ; SOURCE LINE # 395
001F E4             5058             CLR     A
0020 FF             5059             MOV     R7,A
0021 120000   F     5060             LCALL   _set_view
                    5061     ;       cls_disy(3);
                    5062                             ; SOURCE LINE # 396
0024 7F03           5063             MOV     R7,#03H
0026 120000   F     5064             LCALL   _cls_disy
                    5065     ;       LED = 0;
                    5066                             ; SOURCE LINE # 397
0029 C2A7           5067             CLR     LED
                    5068     ;       SWITCH = 1;
                    5069                             ; SOURCE LINE # 398
002B 750001   F     5070             MOV     SWITCH,#01H
A51 MACRO ASSEMBLER  MAIN                                                                 12/19/2019 15:45:25 PAGE    78

                    5071     ; }                     ; SOURCE LINE # 399
002E D007           5072             POP     AR7
0030 D006           5073             POP     AR6
0032 D005           5074             POP     AR5
0034 D004           5075             POP     AR4
0036 D003           5076             POP     AR3
0038 D002           5077             POP     AR2
003A D001           5078             POP     AR1
003C D000           5079             POP     AR0
003E D0D0           5080             POP     PSW
0040 D082           5081             POP     DPL
0042 D083           5082             POP     DPH
0044 D0F0           5083             POP     B
0046 D0E0           5084             POP     ACC
0048 32             5085             RETI    
                    5086     ; END OF int0_fun
                    5087     
                    5088             END
A51 MACRO ASSEMBLER  MAIN                                                                 12/19/2019 15:45:25 PAGE    79

SYMBOL TABLE LISTING
------ ----- -------


N A M E                    T Y P E  V A L U E   ATTRIBUTES

?C0001. . . . . . . . . .  C ADDR   0000H   R   SEG=?PR?_DELY_MS?MAIN
?C0003. . . . . . . . . .  C ADDR   000DH   R   SEG=?PR?_DELY_MS?MAIN
?C0006. . . . . . . . . .  C ADDR   001DH   R   SEG=?PR?_DELY_MS?MAIN
?C0007. . . . . . . . . .  C ADDR   0008H   R   SEG=?PR?_SELECT_SIDE?MAIN
?C0008. . . . . . . . . .  C ADDR   000AH   R   SEG=?PR?_SELECT_SIDE?MAIN
?C0009. . . . . . . . . .  C ADDR   0011H   R   SEG=?PR?_SELECT_SIDE?MAIN
?C0011. . . . . . . . . .  C ADDR   0013H   R   SEG=?PR?_SELECT_SIDE?MAIN
?C0014. . . . . . . . . .  C ADDR   0004H   R   SEG=?PR?WAIT_BUSY?MAIN
?C0019. . . . . . . . . .  C ADDR   0005H   R   SEG=?PR?_CLS_DISY?MAIN
?C0021. . . . . . . . . .  C ADDR   0027H   R   SEG=?PR?_CLS_DISY?MAIN
?C0022. . . . . . . . . .  C ADDR   0015H   R   SEG=?PR?_CLS_DISY?MAIN
?C0025. . . . . . . . . .  C ADDR   002AH   R   SEG=?PR?_CLS_DISY?MAIN
?C0026. . . . . . . . . .  C ADDR   0007H   R   SEG=?PR?_CLS_DISY_DELY?MAIN
?C0029. . . . . . . . . .  C ADDR   0017H   R   SEG=?PR?_CLS_DISY_DELY?MAIN
?C0030. . . . . . . . . .  C ADDR   0029H   R   SEG=?PR?_CLS_DISY_DELY?MAIN
?C0032. . . . . . . . . .  C ADDR   0033H   R   SEG=?PR?_CLS_DISY_DELY?MAIN
?C0035. . . . . . . . . .  C ADDR   0024H   R   SEG=?PR?_SET_LOC?MAIN
?C0036. . . . . . . . . .  C ADDR   0014H   R   SEG=?PR?_SHOW_FONT_8?MAIN
?C0037. . . . . . . . . .  C ADDR   0024H   R   SEG=?PR?_SHOW_FONT_8?MAIN
?C0039. . . . . . . . . .  C ADDR   002DH   R   SEG=?PR?_SHOW_FONT_8?MAIN
?C0042. . . . . . . . . .  C ADDR   003DH   R   SEG=?PR?_SHOW_FONT_8?MAIN
?C0043. . . . . . . . . .  C ADDR   0014H   R   SEG=?PR?_SHOW_FONT_8F?MAIN
?C0044. . . . . . . . . .  C ADDR   0042H   R   SEG=?PR?_SHOW_FONT_8F?MAIN
?C0045. . . . . . . . . .  C ADDR   003FH   R   SEG=?PR?_SHOW_FONT_8F?MAIN
?C0046. . . . . . . . . .  C ADDR   0033H   R   SEG=?PR?_SHOW_FONT_8F?MAIN
?C0048. . . . . . . . . .  C ADDR   004BH   R   SEG=?PR?_SHOW_FONT_8F?MAIN
?C0050. . . . . . . . . .  C ADDR   0076H   R   SEG=?PR?_SHOW_FONT_8F?MAIN
?C0051. . . . . . . . . .  C ADDR   006AH   R   SEG=?PR?_SHOW_FONT_8F?MAIN
?C0053. . . . . . . . . .  C ADDR   0079H   R   SEG=?PR?_SHOW_FONT_8F?MAIN
?C0054. . . . . . . . . .  C ADDR   0014H   R   SEG=?PR?_SHOW_FONT_16?MAIN
?C0055. . . . . . . . . .  C ADDR   002AH   R   SEG=?PR?_SHOW_FONT_16?MAIN
?C0057. . . . . . . . . .  C ADDR   0033H   R   SEG=?PR?_SHOW_FONT_16?MAIN
?C0060. . . . . . . . . .  C ADDR   0049H   R   SEG=?PR?_SHOW_FONT_16?MAIN
?C0063. . . . . . . . . .  C ADDR   0008H   R   SEG=?PR?_WRITE_1302_BYTE?MAIN
?C0066. . . . . . . . . .  C ADDR   001AH   R   SEG=?PR?_WRITE_1302_BYTE?MAIN
?C0067. . . . . . . . . .  C ADDR   001CH   R   SEG=?PR?_WRITE_1302_BYTE?MAIN
?C0068. . . . . . . . . .  C ADDR   0027H   R   SEG=?PR?_WRITE_1302_BYTE?MAIN
?C0069. . . . . . . . . .  C ADDR   0004H   R   SEG=?PR?READ_1302_BYTE?MAIN
?C0070. . . . . . . . . .  C ADDR   001FH   R   SEG=?PR?READ_1302_BYTE?MAIN
?C0072. . . . . . . . . .  C ADDR   0018H   R   SEG=?PR?READ_1302_BYTE?MAIN
?C0076. . . . . . . . . .  C ADDR   0008H   R   SEG=?PR?_READ_TIME?MAIN
?C0079. . . . . . . . . .  C ADDR   0030H   R   SEG=?PR?_READ_TIME?MAIN
?C0080. . . . . . . . . .  C ADDR   000FH   R   SEG=?PR?_WRITE_TIME?MAIN
?C0081. . . . . . . . . .  C ADDR   0039H   R   SEG=?PR?_WRITE_TIME?MAIN
?C0084. . . . . . . . . .  C ADDR   0003H   R   SEG=?PR?_DS18_DELAY?MAIN
?C0087. . . . . . . . . .  C ADDR   0017H   R   SEG=?PR?_DS18_DELAY?MAIN
?C0089. . . . . . . . . .  C ADDR   000FH   R   SEG=?PR?_WRITE_BIT?MAIN
?C0091. . . . . . . . . .  C ADDR   0004H   R   SEG=?PR?_DS18WRITE_BYTE?MAIN
?C0092. . . . . . . . . .  C ADDR   001DH   R   SEG=?PR?_DS18WRITE_BYTE?MAIN
?C0095. . . . . . . . . .  C ADDR   0006H   R   SEG=?PR?READ_BIT?MAIN
?C0096. . . . . . . . . .  C ADDR   0013H   R   SEG=?PR?READ_BIT?MAIN
?C0099. . . . . . . . . .  C ADDR   0003H   R   SEG=?PR?DSREAD_BYTE?MAIN
?C0100. . . . . . . . . .  C ADDR   002AH   R   SEG=?PR?DSREAD_BYTE?MAIN
?C0102. . . . . . . . . .  C ADDR   0020H   R   SEG=?PR?DSREAD_BYTE?MAIN
?C0104. . . . . . . . . .  C ADDR   0023H   R   SEG=?PR?READTEMPERATURE?MAIN
?C0105. . . . . . . . . .  C ADDR   0039H   R   SEG=?PR?READTEMPERATURE?MAIN
?C0107. . . . . . . . . .  C ADDR   0063H   R   SEG=?PR?READTEMPERATURE?MAIN
?C0111. . . . . . . . . .  C ADDR   0029H   R   SEG=?PR?SHOW_DEL?MAIN
?C0112. . . . . . . . . .  C ADDR   002BH   R   SEG=?PR?SHOW_DEL?MAIN
?C0113. . . . . . . . . .  C ADDR   005EH   R   SEG=?PR?SHOW_DEL?MAIN
A51 MACRO ASSEMBLER  MAIN                                                                 12/19/2019 15:45:25 PAGE    80

?C0114. . . . . . . . . .  C ADDR   0060H   R   SEG=?PR?SHOW_DEL?MAIN
?C0115. . . . . . . . . .  C ADDR   00A7H   R   SEG=?PR?SHOW_DEL?MAIN
?C0116. . . . . . . . . .  C ADDR   00A9H   R   SEG=?PR?SHOW_DEL?MAIN
?C0117. . . . . . . . . .  C ADDR   00DEH   R   SEG=?PR?SHOW_DEL?MAIN
?C0118. . . . . . . . . .  C ADDR   00E0H   R   SEG=?PR?SHOW_DEL?MAIN
?C0119. . . . . . . . . .  C ADDR   0128H   R   SEG=?PR?SHOW_DEL?MAIN
?C0120. . . . . . . . . .  C ADDR   012AH   R   SEG=?PR?SHOW_DEL?MAIN
?C0121. . . . . . . . . .  C ADDR   0163H   R   SEG=?PR?SHOW_DEL?MAIN
?C0122. . . . . . . . . .  C ADDR   0165H   R   SEG=?PR?SHOW_DEL?MAIN
?C0123. . . . . . . . . .  C ADDR   019BH   R   SEG=?PR?SHOW_DEL?MAIN
?C0124. . . . . . . . . .  C ADDR   019DH   R   SEG=?PR?SHOW_DEL?MAIN
?C0125. . . . . . . . . .  C ADDR   01D6H   R   SEG=?PR?SHOW_DEL?MAIN
?C0126. . . . . . . . . .  C ADDR   01D8H   R   SEG=?PR?SHOW_DEL?MAIN
?C0127. . . . . . . . . .  C ADDR   0222H   R   SEG=?PR?SHOW_DEL?MAIN
?C0128. . . . . . . . . .  C ADDR   0224H   R   SEG=?PR?SHOW_DEL?MAIN
?C0129. . . . . . . . . .  C ADDR   025FH   R   SEG=?PR?SHOW_DEL?MAIN
?C0130. . . . . . . . . .  C ADDR   0261H   R   SEG=?PR?SHOW_DEL?MAIN
?C0131. . . . . . . . . .  C ADDR   02ABH   R   SEG=?PR?SHOW_DEL?MAIN
?C0132. . . . . . . . . .  C ADDR   02ADH   R   SEG=?PR?SHOW_DEL?MAIN
?C0133. . . . . . . . . .  C ADDR   02E8H   R   SEG=?PR?SHOW_DEL?MAIN
?C0134. . . . . . . . . .  C ADDR   02EAH   R   SEG=?PR?SHOW_DEL?MAIN
?C0135. . . . . . . . . .  C ADDR   0320H   R   SEG=?PR?SHOW_DEL?MAIN
?C0136. . . . . . . . . .  C ADDR   0322H   R   SEG=?PR?SHOW_DEL?MAIN
?C0137. . . . . . . . . .  C ADDR   035BH   R   SEG=?PR?SHOW_DEL?MAIN
?C0138. . . . . . . . . .  C ADDR   035DH   R   SEG=?PR?SHOW_DEL?MAIN
?C0139. . . . . . . . . .  C ADDR   03A7H   R   SEG=?PR?SHOW_DEL?MAIN
?C0140. . . . . . . . . .  C ADDR   03A9H   R   SEG=?PR?SHOW_DEL?MAIN
?C0141. . . . . . . . . .  C ADDR   03E4H   R   SEG=?PR?SHOW_DEL?MAIN
?C0142. . . . . . . . . .  C ADDR   03E6H   R   SEG=?PR?SHOW_DEL?MAIN
?C0143. . . . . . . . . .  C ADDR   0430H   R   SEG=?PR?SHOW_DEL?MAIN
?C0144. . . . . . . . . .  C ADDR   0432H   R   SEG=?PR?SHOW_DEL?MAIN
?C0145. . . . . . . . . .  C ADDR   046DH   R   SEG=?PR?SHOW_DEL?MAIN
?C0146. . . . . . . . . .  C ADDR   046FH   R   SEG=?PR?SHOW_DEL?MAIN
?C0149. . . . . . . . . .  C ADDR   0003H   R   SEG=?PR?ON_TIME?MAIN
?C0150. . . . . . . . . .  C ADDR   0038H   R   SEG=?PR?ON_TIME?MAIN
?C0151. . . . . . . . . .  C ADDR   0035H   R   SEG=?PR?ON_TIME?MAIN
?C0155. . . . . . . . . .  C ADDR   00C0H   R   SEG=?PR?SHOW_TEMPER?MAIN
?C0156. . . . . . . . . .  C ADDR   013AH   R   SEG=?PR?_SET_VIEW?MAIN
?C0157. . . . . . . . . .  C ADDR   0016H   R   SEG=?PR?_SET_VIEW?MAIN
?C0158. . . . . . . . . .  C ADDR   004CH   R   SEG=?PR?_SET_VIEW?MAIN
?C0159. . . . . . . . . .  C ADDR   002AH   R   SEG=?PR?_SET_VIEW?MAIN
?C0161. . . . . . . . . .  C ADDR   0036H   R   SEG=?PR?_SET_VIEW?MAIN
?C0164. . . . . . . . . .  C ADDR   007FH   R   SEG=?PR?_SET_VIEW?MAIN
?C0165. . . . . . . . . .  C ADDR   006EH   R   SEG=?PR?_SET_VIEW?MAIN
?C0168. . . . . . . . . .  C ADDR   0135H   R   SEG=?PR?_SET_VIEW?MAIN
?C0169. . . . . . . . . .  C ADDR   00AEH   R   SEG=?PR?_SET_VIEW?MAIN
?C0170. . . . . . . . . .  C ADDR   009EH   R   SEG=?PR?_SET_VIEW?MAIN
?C0174. . . . . . . . . .  C ADDR   00DCH   R   SEG=?PR?_SET_VIEW?MAIN
?C0175. . . . . . . . . .  C ADDR   00CFH   R   SEG=?PR?_SET_VIEW?MAIN
?C0179. . . . . . . . . .  C ADDR   0101H   R   SEG=?PR?_SET_VIEW?MAIN
?C0180. . . . . . . . . .  C ADDR   00F4H   R   SEG=?PR?_SET_VIEW?MAIN
?C0185. . . . . . . . . .  C ADDR   011FH   R   SEG=?PR?_SET_VIEW?MAIN
?C0188. . . . . . . . . .  C ADDR   015AH   R   SEG=?PR?_SET_VIEW?MAIN
?C0189. . . . . . . . . .  C ADDR   0170H   R   SEG=?PR?_SET_VIEW?MAIN
?C0192. . . . . . . . . .  C ADDR   0011H   R   SEG=?PR?KEY_SCAN?MAIN
?C0194. . . . . . . . . .  C ADDR   0027H   R   SEG=?PR?KEY_SCAN?MAIN
?C0195. . . . . . . . . .  C ADDR   0045H   R   SEG=?PR?KEY_SCAN?MAIN
?C0197. . . . . . . . . .  C ADDR   007AH   R   SEG=?PR?KEY_SCAN?MAIN
?C0199. . . . . . . . . .  C ADDR   0083H   R   SEG=?PR?KEY_SCAN?MAIN
?C0202. . . . . . . . . .  C ADDR   00A7H   R   SEG=?PR?KEY_SCAN?MAIN
?C0203. . . . . . . . . .  C ADDR   0019H   R   SEG=?PR?MAIN?MAIN
?C0205. . . . . . . . . .  C ADDR   007DH   R   SEG=?PR?MAIN?MAIN
?C0206. . . . . . . . . .  C ADDR   0076H   R   SEG=?PR?MAIN?MAIN
?C0207. . . . . . . . . .  C ADDR   002CH   R   SEG=?PR?MAIN?MAIN
?C0209. . . . . . . . . .  C ADDR   0042H   R   SEG=?PR?MAIN?MAIN
?C0210. . . . . . . . . .  C ADDR   0049H   R   SEG=?PR?MAIN?MAIN
A51 MACRO ASSEMBLER  MAIN                                                                 12/19/2019 15:45:25 PAGE    81

?C0212. . . . . . . . . .  C ADDR   0050H   R   SEG=?PR?MAIN?MAIN
?C0214. . . . . . . . . .  C ADDR   0057H   R   SEG=?PR?MAIN?MAIN
?C0216. . . . . . . . . .  C ADDR   005EH   R   SEG=?PR?MAIN?MAIN
?C0221. . . . . . . . . .  C ADDR   00A1H   R   SEG=?PR?MAIN?MAIN
?C0222. . . . . . . . . .  C ADDR   0125H   R   SEG=?PR?MAIN?MAIN
?C0223. . . . . . . . . .  C ADDR   0111H   R   SEG=?PR?MAIN?MAIN
?C0224. . . . . . . . . .  C ADDR   0120H   R   SEG=?PR?MAIN?MAIN
?C0228. . . . . . . . . .  C ADDR   0007H   R   SEG=?PR?_DELY_MS?MAIN
?C0229. . . . . . . . . .  C ADDR   001BH   R   SEG=?PR?_DELY_MS?MAIN
?C0230. . . . . . . . . .  C ADDR   0026H   R   SEG=?PR?_READ_TIME?MAIN
?C0231. . . . . . . . . .  C ADDR   0025H   R   SEG=?PR?_WRITE_TIME?MAIN
?C0232. . . . . . . . . .  C ADDR   0015H   R   SEG=?PR?_DS18_DELAY?MAIN
?C0233. . . . . . . . . .  C ADDR   001AH   R   SEG=?PR?DSREAD_BYTE?MAIN
?C0234. . . . . . . . . .  C ADDR   001CH   R   SEG=?PR?DSREAD_BYTE?MAIN
?C0235. . . . . . . . . .  C ADDR   0011H   R   SEG=?PR?SHOW_TEMPER?MAIN
?C0236. . . . . . . . . .  C ADDR   003BH   R   SEG=?PR?_SHOW_FONT_8F?MAIN
?C0237. . . . . . . . . .  C ADDR   0072H   R   SEG=?PR?_SHOW_FONT_8F?MAIN
?C0238. . . . . . . . . .  C ADDR   003FH   R   SEG=?PR?_SET_VIEW?MAIN
?C0239. . . . . . . . . .  C ADDR   00ACH   R   SEG=?PR?_SET_VIEW?MAIN
?C0240. . . . . . . . . .  C ADDR   00DAH   R   SEG=?PR?_SET_VIEW?MAIN
?C0241. . . . . . . . . .  C ADDR   00FFH   R   SEG=?PR?_SET_VIEW?MAIN
?C0242. . . . . . . . . .  C ADDR   0117H   R   SEG=?PR?_SET_VIEW?MAIN
?C0243. . . . . . . . . .  C ADDR   012AH   R   SEG=?PR?_SET_VIEW?MAIN
?C0244. . . . . . . . . .  C ADDR   016DH   R   SEG=?PR?_SET_VIEW?MAIN
?C0245. . . . . . . . . .  C ADDR   0067H   R   SEG=?PR?KEY_SCAN?MAIN
?C0246. . . . . . . . . .  C ADDR   008AH   R   SEG=?PR?KEY_SCAN?MAIN
?C0247. . . . . . . . . .  C ADDR   004EH   R   SEG=?PR?MAIN?MAIN
?C0248. . . . . . . . . .  C ADDR   0055H   R   SEG=?PR?MAIN?MAIN
?C0249. . . . . . . . . .  C ADDR   005CH   R   SEG=?PR?MAIN?MAIN
?C0250. . . . . . . . . .  C ADDR   0078H   R   SEG=?PR?MAIN?MAIN
?C?CLDOPTR. . . . . . . .  C ADDR   -----       EXT
?C?CLDPTR . . . . . . . .  C ADDR   -----       EXT
?C?CSTPTR . . . . . . . .  C ADDR   -----       EXT
?C?IMUL . . . . . . . . .  C ADDR   -----       EXT
?C?UIDIV. . . . . . . . .  C ADDR   -----       EXT
?CO?MAIN. . . . . . . . .  C SEG    03F5H       REL=UNIT
?C_INITSEG. . . . . . . .  C SEG    0024H       REL=UNIT
?C_STARTUP. . . . . . . .  C ADDR   -----       EXT
?DT?MAIN. . . . . . . . .  D SEG    001DH       REL=UNIT
?DT?MAIN?MAIN . . . . . .  D SEG    0007H       REL=UNIT
?DT?READTEMPERATURE?MAIN.  D SEG    000AH       REL=UNIT
?DT?SHOW_DEL?MAIN . . . .  D SEG    0001H       REL=UNIT
?DT?SHOW_TEMPER?MAIN. . .  D SEG    0002H       REL=UNIT
?DT?SHOW_TIME?MAIN. . . .  D SEG    0001H       REL=UNIT
?DT?_READ_TIME?MAIN . . .  D SEG    0003H       REL=UNIT
?DT?_SET_VIEW?MAIN. . . .  D SEG    0001H       REL=UNIT
?DT?_SHOW_FONT_16?MAIN. .  D SEG    0006H       REL=UNIT
?DT?_SHOW_FONT_8?MAIN . .  D SEG    0006H       REL=UNIT
?DT?_SHOW_FONT_8F?MAIN. .  D SEG    0007H       REL=UNIT
?DT?_WRITE_TIME?MAIN. . .  D SEG    0003H       REL=UNIT
?MAIN?BYTE. . . . . . . .  D ADDR   0000H   R   SEG=?DT?MAIN?MAIN
?PR?DRMATIC_DISPLAY?MAIN.  C SEG    0006H       REL=UNIT
?PR?DSREAD_BYTE?MAIN. . .  C SEG    002DH       REL=UNIT
?PR?INT0_FUN?MAIN . . . .  C SEG    0049H       REL=UNIT
?PR?KEY_SCAN?MAIN . . . .  C SEG    00A8H       REL=UNIT
?PR?LED_INIT?MAIN . . . .  C SEG    000FH       REL=UNIT
?PR?MAIN?MAIN . . . . . .  C SEG    012FH       REL=UNIT
?PR?ON_TIME?MAIN. . . . .  C SEG    0039H       REL=UNIT
?PR?OW_RESET?MAIN . . . .  C SEG    001DH       REL=UNIT
?PR?READTEMPERATURE?MAIN.  C SEG    0072H       REL=UNIT
?PR?READ_1302_BYTE?MAIN .  C SEG    0020H       REL=UNIT
?PR?READ_BIT?MAIN . . . .  C SEG    0019H       REL=UNIT
?PR?SHOW_DEL?MAIN . . . .  C SEG    047AH       REL=UNIT
?PR?SHOW_FIRST_WORD?MAIN.  C SEG    0054H       REL=UNIT
?PR?SHOW_TEMPER?MAIN. . .  C SEG    00C1H       REL=UNIT
?PR?SHOW_TIME?MAIN. . . .  C SEG    0259H       REL=UNIT
A51 MACRO ASSEMBLER  MAIN                                                                 12/19/2019 15:45:25 PAGE    82

?PR?WAIT_BUSY?MAIN. . . .  C SEG    0011H       REL=UNIT
?PR?_BCD_DECIMAL?MAIN . .  C SEG    0011H       REL=UNIT
?PR?_CLS_DISY?MAIN. . . .  C SEG    002BH       REL=UNIT
?PR?_CLS_DISY_DELY?MAIN .  C SEG    0034H       REL=UNIT
?PR?_DEC_BCD?MAIN . . . .  C SEG    0013H       REL=UNIT
?PR?_DELY_MS?MAIN . . . .  C SEG    001EH       REL=UNIT
?PR?_DS18WRITE_BYTE?MAIN.  C SEG    0024H       REL=UNIT
?PR?_DS18_DELAY?MAIN. . .  C SEG    0018H       REL=UNIT
?PR?_READ_1302?MAIN . . .  C SEG    0009H       REL=UNIT
?PR?_READ_TIME?MAIN . . .  C SEG    0031H       REL=UNIT
?PR?_SELECT_SIDE?MAIN . .  C SEG    0014H       REL=UNIT
?PR?_SET_LOC?MAIN . . . .  C SEG    0025H       REL=UNIT
?PR?_SET_VIEW?MAIN. . . .  C SEG    03B2H       REL=UNIT
?PR?_SHOW_FONT_16?MAIN. .  C SEG    004AH       REL=UNIT
?PR?_SHOW_FONT_8?MAIN . .  C SEG    003EH       REL=UNIT
?PR?_SHOW_FONT_8F?MAIN. .  C SEG    007AH       REL=UNIT
?PR?_WRITE_1302?MAIN. . .  C SEG    000BH       REL=UNIT
?PR?_WRITE_1302_BYTE?MAIN  C SEG    0028H       REL=UNIT
?PR?_WRITE_BIT?MAIN . . .  C SEG    0019H       REL=UNIT
?PR?_WRITE_DATA?MAIN. . .  C SEG    001DH       REL=UNIT
?PR?_WRITE_ORD?MAIN . . .  C SEG    0016H       REL=UNIT
?PR?_WRITE_TIME?MAIN. . .  C SEG    0040H       REL=UNIT
?READTEMPERATURE?BYTE . .  D ADDR   0000H   R   SEG=?DT?READTEMPERATURE?MAIN
?SHOW_DEL?BYTE. . . . . .  D ADDR   0000H   R   SEG=?DT?SHOW_DEL?MAIN
?SHOW_TEMPER?BYTE . . . .  D ADDR   0000H   R   SEG=?DT?SHOW_TEMPER?MAIN
?SHOW_TIME?BYTE . . . . .  D ADDR   0000H   R   SEG=?DT?SHOW_TIME?MAIN
?_READ_TIME?BYTE. . . . .  D ADDR   0000H   R   SEG=?DT?_READ_TIME?MAIN
?_SET_VIEW?BYTE . . . . .  D ADDR   0000H   R   SEG=?DT?_SET_VIEW?MAIN
?_SHOW_FONT_16?BYTE . . .  D ADDR   0000H   R   SEG=?DT?_SHOW_FONT_16?MAIN
?_SHOW_FONT_8?BYTE. . . .  D ADDR   0000H   R   SEG=?DT?_SHOW_FONT_8?MAIN
?_SHOW_FONT_8F?BYTE . . .  D ADDR   0000H   R   SEG=?DT?_SHOW_FONT_8F?MAIN
?_WRITE_TIME?BYTE . . . .  D ADDR   0000H   R   SEG=?DT?_WRITE_TIME?MAIN
AC. . . . . . . . . . . .  B ADDR   00D0H.6 A   
ACC . . . . . . . . . . .  D ADDR   00E0H   A   
AR0 . . . . . . . . . . .  D ADDR   0000H   A   
AR1 . . . . . . . . . . .  D ADDR   0001H   A   
AR2 . . . . . . . . . . .  D ADDR   0002H   A   
AR3 . . . . . . . . . . .  D ADDR   0003H   A   
AR4 . . . . . . . . . . .  D ADDR   0004H   A   
AR5 . . . . . . . . . . .  D ADDR   0005H   A   
AR6 . . . . . . . . . . .  D ADDR   0006H   A   
AR7 . . . . . . . . . . .  D ADDR   0007H   A   
ARR?1062. . . . . . . . .  D ADDR   0003H   R   SEG=?DT?_SHOW_FONT_8F?MAIN
ARR?1168. . . . . . . . .  D ADDR   0003H   R   SEG=?DT?_SHOW_FONT_16?MAIN
ARR?957 . . . . . . . . .  D ADDR   0003H   R   SEG=?DT?_SHOW_FONT_8?MAIN
B . . . . . . . . . . . .  D ADDR   00F0H   A   
BUF?28100 . . . . . . . .  D ADDR   0000H   R   SEG=?DT?SHOW_TIME?MAIN
BUF?29101 . . . . . . . .  D ADDR   0000H   R   SEG=?DT?SHOW_DEL?MAIN
BUF?33106 . . . . . . . .  D ADDR   0000H   R   SEG=?DT?_SET_VIEW?MAIN
BUF_TIME?35111. . . . . .  D ADDR   0004H   R   SEG=?DT?MAIN?MAIN
CLA_. . . . . . . . . . .  D ADDR   0000H   R   SEG=?DT?MAIN
CS1 . . . . . . . . . . .  B ADDR   00A0H.0 A   
CS2 . . . . . . . . . . .  B ADDR   00A0H.1 A   
CY. . . . . . . . . . . .  B ADDR   00D0H.7 A   
DOWN. . . . . . . . . . .  B ADDR   0090H.3 A   
DPH . . . . . . . . . . .  D ADDR   0083H   A   
DPL . . . . . . . . . . .  D ADDR   0082H   A   
DQ. . . . . . . . . . . .  B ADDR   0090H.1 A   
DRMATIC_DISPLAY . . . . .  C ADDR   0000H   R   SEG=?PR?DRMATIC_DISPLAY?MAIN
DSREAD_BYTE . . . . . . .  C ADDR   0000H   R   SEG=?PR?DSREAD_BYTE?MAIN
EA. . . . . . . . . . . .  B ADDR   00A8H.7 A   
EN. . . . . . . . . . . .  B ADDR   00A0H.4 A   
ES. . . . . . . . . . . .  B ADDR   00A8H.4 A   
ET0 . . . . . . . . . . .  B ADDR   00A8H.1 A   
ET1 . . . . . . . . . . .  B ADDR   00A8H.3 A   
EX0 . . . . . . . . . . .  B ADDR   00A8H.0 A   
A51 MACRO ASSEMBLER  MAIN                                                                 12/19/2019 15:45:25 PAGE    83

EX1 . . . . . . . . . . .  B ADDR   00A8H.2 A   
EXIT. . . . . . . . . . .  B ADDR   0090H.6 A   
F0. . . . . . . . . . . .  B ADDR   00D0H.5 A   
FLAG?35110. . . . . . . .  D ADDR   0003H   R   SEG=?DT?MAIN?MAIN
GET?2695. . . . . . . . .  D ADDR   0000H   R   SEG=?DT?READTEMPERATURE?MAIN
HANZI_16. . . . . . . . .  C ADDR   00A0H   R   SEG=?CO?MAIN
HZ_NUM. . . . . . . . . .  C ADDR   0300H   R   SEG=?CO?MAIN
IE. . . . . . . . . . . .  D ADDR   00A8H   A   
IE0 . . . . . . . . . . .  B ADDR   0088H.1 A   
IE1 . . . . . . . . . . .  B ADDR   0088H.3 A   
INT0. . . . . . . . . . .  B ADDR   00B0H.2 A   
INT0_FUN. . . . . . . . .  C ADDR   0000H   R   SEG=?PR?INT0_FUN?MAIN
INT1. . . . . . . . . . .  B ADDR   00B0H.3 A   
IP. . . . . . . . . . . .  D ADDR   00B8H   A   
ISF?1063. . . . . . . . .  D ADDR   0006H   R   SEG=?DT?_SHOW_FONT_8F?MAIN
IT0 . . . . . . . . . . .  B ADDR   0088H.0 A   
IT1 . . . . . . . . . . .  B ADDR   0088H.2 A   
KEY_SCAN. . . . . . . . .  C ADDR   0000H   R   SEG=?PR?KEY_SCAN?MAIN
L?0251. . . . . . . . . .  C ADDR   0000H   R   SEG=?PR?_SHOW_FONT_8?MAIN
L?0252. . . . . . . . . .  C ADDR   0000H   R   SEG=?PR?_WRITE_DATA?MAIN
L?0253. . . . . . . . . .  C ADDR   0006H   R   SEG=?PR?_WRITE_DATA?MAIN
L?0254. . . . . . . . . .  C ADDR   0000H   R   SEG=?PR?_SHOW_FONT_8F?MAIN
L?0255. . . . . . . . . .  C ADDR   0000H   R   SEG=?PR?_SHOW_FONT_16?MAIN
L?0256. . . . . . . . . .  C ADDR   0000H   R   SEG=?PR?_SHOW_FONT_16?MAIN
L?0257. . . . . . . . . .  C ADDR   0000H   R   SEG=?PR?_WRITE_ORD?MAIN
L?0258. . . . . . . . . .  C ADDR   0000H   R   SEG=?PR?_WRITE_1302_BYTE?MAIN
LAST_VAL. . . . . . . . .  D ADDR   0013H   R   SEG=?DT?MAIN
LED . . . . . . . . . . .  B ADDR   00A0H.7 A   
LED_INIT. . . . . . . . .  C ADDR   0000H   R   SEG=?PR?LED_INIT?MAIN
LEFT. . . . . . . . . . .  B ADDR   0090H.4 A   
LOC . . . . . . . . . . .  D ADDR   0015H   R   SEG=?DT?MAIN
MAIN. . . . . . . . . . .  C ADDR   0000H   R   SEG=?PR?MAIN?MAIN
MAX_LOC . . . . . . . . .  C ADDR   03F2H   R   SEG=?CO?MAIN
NUM . . . . . . . . . . .  C ADDR   0000H   R   SEG=?CO?MAIN
ON_TIME . . . . . . . . .  C ADDR   0000H   R   SEG=?PR?ON_TIME?MAIN
OV. . . . . . . . . . . .  B ADDR   00D0H.2 A   
OW_RESET. . . . . . . . .  C ADDR   0000H   R   SEG=?PR?OW_RESET?MAIN
P . . . . . . . . . . . .  B ADDR   00D0H.0 A   
P0. . . . . . . . . . . .  D ADDR   0080H   A   
P1. . . . . . . . . . . .  D ADDR   0090H   A   
P2. . . . . . . . . . . .  D ADDR   00A0H   A   
P3. . . . . . . . . . . .  D ADDR   00B0H   A   
P?1881. . . . . . . . . .  D ADDR   0000H   R   SEG=?DT?_READ_TIME?MAIN
P?1983. . . . . . . . . .  D ADDR   0000H   R   SEG=?DT?_WRITE_TIME?MAIN
PCON. . . . . . . . . . .  D ADDR   0087H   A   
POI . . . . . . . . . . .  D ADDR   001BH   R   SEG=?DT?MAIN
PS. . . . . . . . . . . .  B ADDR   00B8H.4 A   
PSW . . . . . . . . . . .  D ADDR   00D0H   A   
PT0 . . . . . . . . . . .  B ADDR   00B8H.1 A   
PT1 . . . . . . . . . . .  B ADDR   00B8H.3 A   
PX0 . . . . . . . . . . .  B ADDR   00B8H.0 A   
PX1 . . . . . . . . . . .  B ADDR   00B8H.2 A   
RB8 . . . . . . . . . . .  B ADDR   0098H.2 A   
RD. . . . . . . . . . . .  B ADDR   00B0H.7 A   
READTEMPERATURE . . . . .  C ADDR   0000H   R   SEG=?PR?READTEMPERATURE?MAIN
READ_1302_BYTE. . . . . .  C ADDR   0000H   R   SEG=?PR?READ_1302_BYTE?MAIN
READ_BIT. . . . . . . . .  C ADDR   0000H   R   SEG=?PR?READ_BIT?MAIN
REN . . . . . . . . . . .  B ADDR   0098H.4 A   
RES . . . . . . . . . . .  D ADDR   000BH   R   SEG=?DT?MAIN
RI. . . . . . . . . . . .  B ADDR   0098H.0 A   
RIGHT . . . . . . . . . .  B ADDR   0090H.5 A   
RIZI. . . . . . . . . . .  C ADDR   0240H   R   SEG=?CO?MAIN
RS. . . . . . . . . . . .  B ADDR   00A0H.3 A   
RS0 . . . . . . . . . . .  B ADDR   00D0H.3 A   
RS1 . . . . . . . . . . .  B ADDR   00D0H.4 A   
RW. . . . . . . . . . . .  B ADDR   00A0H.2 A   
A51 MACRO ASSEMBLER  MAIN                                                                 12/19/2019 15:45:25 PAGE    84

RXD . . . . . . . . . . .  B ADDR   00B0H.0 A   
SBUF. . . . . . . . . . .  D ADDR   0099H   A   
SCON. . . . . . . . . . .  D ADDR   0098H   A   
SHOW_DEL. . . . . . . . .  C ADDR   0000H   R   SEG=?PR?SHOW_DEL?MAIN
SHOW_FIRST_WORD . . . . .  C ADDR   0000H   R   SEG=?PR?SHOW_FIRST_WORD?MAIN
SHOW_TEMPER . . . . . . .  C ADDR   0000H   R   SEG=?PR?SHOW_TEMPER?MAIN
SHOW_TIME . . . . . . . .  C ADDR   0000H   R   SEG=?PR?SHOW_TIME?MAIN
SIDE?1059 . . . . . . . .  D ADDR   0000H   R   SEG=?DT?_SHOW_FONT_8F?MAIN
SIDE?1165 . . . . . . . .  D ADDR   0000H   R   SEG=?DT?_SHOW_FONT_16?MAIN
SIDE?954. . . . . . . . .  D ADDR   0000H   R   SEG=?DT?_SHOW_FONT_8?MAIN
SING. . . . . . . . . . .  C ADDR   0200H   R   SEG=?CO?MAIN
SM0 . . . . . . . . . . .  B ADDR   0098H.7 A   
SM1 . . . . . . . . . . .  B ADDR   0098H.6 A   
SM2 . . . . . . . . . . .  B ADDR   0098H.5 A   
SOUND . . . . . . . . . .  B ADDR   0090H.0 A   
SP. . . . . . . . . . . .  D ADDR   0081H   A   
SWITCH. . . . . . . . . .  D ADDR   0012H   R   SEG=?DT?MAIN
T0. . . . . . . . . . . .  B ADDR   00B0H.4 A   
T1. . . . . . . . . . . .  B ADDR   00B0H.5 A   
TB8 . . . . . . . . . . .  B ADDR   0098H.3 A   
TCON. . . . . . . . . . .  D ADDR   0088H   A   
TE?32104. . . . . . . . .  D ADDR   0000H   R   SEG=?DT?SHOW_TEMPER?MAIN
TF0 . . . . . . . . . . .  B ADDR   0088H.5 A   
TF1 . . . . . . . . . . .  B ADDR   0088H.7 A   
TH0 . . . . . . . . . . .  D ADDR   008CH   A   
TH1 . . . . . . . . . . .  D ADDR   008DH   A   
TI. . . . . . . . . . . .  B ADDR   0098H.1 A   
TL0 . . . . . . . . . . .  D ADDR   008AH   A   
TL1 . . . . . . . . . . .  D ADDR   008BH   A   
TMOD. . . . . . . . . . .  D ADDR   0089H   A   
TR0 . . . . . . . . . . .  B ADDR   0088H.4 A   
TR1 . . . . . . . . . . .  B ADDR   0088H.6 A   
TXD . . . . . . . . . . .  B ADDR   00B0H.1 A   
T_CLK . . . . . . . . . .  B ADDR   00B0H.6 A   
T_DAT . . . . . . . . . .  B ADDR   00B0H.5 A   
T_RST . . . . . . . . . .  B ADDR   00B0H.7 A   
UP. . . . . . . . . . . .  B ADDR   0090H.2 A   
WAIT_BUSY . . . . . . . .  C ADDR   0000H   R   SEG=?PR?WAIT_BUSY?MAIN
WR. . . . . . . . . . . .  B ADDR   00B0H.6 A   
X?1060. . . . . . . . . .  D ADDR   0001H   R   SEG=?DT?_SHOW_FONT_8F?MAIN
X?1166. . . . . . . . . .  D ADDR   0001H   R   SEG=?DT?_SHOW_FONT_16?MAIN
X?35107 . . . . . . . . .  D ADDR   0000H   R   SEG=?DT?MAIN?MAIN
X?955 . . . . . . . . . .  D ADDR   0001H   R   SEG=?DT?_SHOW_FONT_8?MAIN
XLOC. . . . . . . . . . .  C ADDR   03E0H   R   SEG=?CO?MAIN
XY_POI. . . . . . . . . .  D ADDR   001CH   R   SEG=?DT?MAIN
X_POI . . . . . . . . . .  D ADDR   0009H   R   SEG=?DT?MAIN
Y?1061. . . . . . . . . .  D ADDR   0002H   R   SEG=?DT?_SHOW_FONT_8F?MAIN
Y?1167. . . . . . . . . .  D ADDR   0002H   R   SEG=?DT?_SHOW_FONT_16?MAIN
Y?35108 . . . . . . . . .  D ADDR   0001H   R   SEG=?DT?MAIN?MAIN
Y?956 . . . . . . . . . .  D ADDR   0002H   R   SEG=?DT?_SHOW_FONT_8?MAIN
YLOC. . . . . . . . . . .  C ADDR   03E9H   R   SEG=?CO?MAIN
Y_POI . . . . . . . . . .  D ADDR   000AH   R   SEG=?DT?MAIN
Z?35109 . . . . . . . . .  D ADDR   0002H   R   SEG=?DT?MAIN?MAIN
_BCD_DECIMAL. . . . . . .  C ADDR   0000H   R   SEG=?PR?_BCD_DECIMAL?MAIN
_CLS_DISY . . . . . . . .  C ADDR   0000H   R   SEG=?PR?_CLS_DISY?MAIN
_CLS_DISY_DELY. . . . . .  C ADDR   0000H   R   SEG=?PR?_CLS_DISY_DELY?MAIN
_DEC_BCD. . . . . . . . .  C ADDR   0000H   R   SEG=?PR?_DEC_BCD?MAIN
_DELY_MS. . . . . . . . .  C ADDR   0000H   R   SEG=?PR?_DELY_MS?MAIN
_DS18WRITE_BYTE . . . . .  C ADDR   0000H   R   SEG=?PR?_DS18WRITE_BYTE?MAIN
_DS18_DELAY . . . . . . .  C ADDR   0000H   R   SEG=?PR?_DS18_DELAY?MAIN
_READ_1302. . . . . . . .  C ADDR   0000H   R   SEG=?PR?_READ_1302?MAIN
_READ_TIME. . . . . . . .  C ADDR   0000H   R   SEG=?PR?_READ_TIME?MAIN
_SELECT_SIDE. . . . . . .  C ADDR   0000H   R   SEG=?PR?_SELECT_SIDE?MAIN
_SET_LOC. . . . . . . . .  C ADDR   0000H   R   SEG=?PR?_SET_LOC?MAIN
_SET_VIEW . . . . . . . .  C ADDR   0000H   R   SEG=?PR?_SET_VIEW?MAIN
_SHOW_FONT_16 . . . . . .  C ADDR   0004H   R   SEG=?PR?_SHOW_FONT_16?MAIN
A51 MACRO ASSEMBLER  MAIN                                                                 12/19/2019 15:45:25 PAGE    85

_SHOW_FONT_8. . . . . . .  C ADDR   0004H   R   SEG=?PR?_SHOW_FONT_8?MAIN
_SHOW_FONT_8F . . . . . .  C ADDR   0004H   R   SEG=?PR?_SHOW_FONT_8F?MAIN
_WRITE_1302 . . . . . . .  C ADDR   0000H   R   SEG=?PR?_WRITE_1302?MAIN
_WRITE_1302_BYTE. . . . .  C ADDR   0006H   R   SEG=?PR?_WRITE_1302_BYTE?MAIN
_WRITE_BIT. . . . . . . .  C ADDR   0000H   R   SEG=?PR?_WRITE_BIT?MAIN
_WRITE_DATA . . . . . . .  C ADDR   000FH   R   SEG=?PR?_WRITE_DATA?MAIN
_WRITE_ORD. . . . . . . .  C ADDR   0008H   R   SEG=?PR?_WRITE_ORD?MAIN
_WRITE_TIME . . . . . . .  C ADDR   0000H   R   SEG=?PR?_WRITE_TIME?MAIN


REGISTER BANK(S) USED: 0 


ASSEMBLY COMPLETE.  0 WARNING(S), 0 ERROR(S)
