
T6963C_M16.elf:     file format elf32-avr

Sections:
Idx Name          Size      VMA       LMA       File off  Algn
  0 .text         00002c26  00000000  00000000  00000094  2**1
                  CONTENTS, ALLOC, LOAD, READONLY, CODE
  1 .data         000002d2  00800060  00002c26  00002cba  2**0
                  CONTENTS, ALLOC, LOAD, DATA
  2 .bss          0000000b  00800332  00800332  00002f8c  2**0
                  ALLOC
  3 .stab         000006b4  00000000  00000000  00002f8c  2**2
                  CONTENTS, READONLY, DEBUGGING
  4 .stabstr      0000005f  00000000  00000000  00003640  2**0
                  CONTENTS, READONLY, DEBUGGING
  5 .debug_aranges 00000060  00000000  00000000  0000369f  2**0
                  CONTENTS, READONLY, DEBUGGING
  6 .debug_pubnames 0000030e  00000000  00000000  000036ff  2**0
                  CONTENTS, READONLY, DEBUGGING
  7 .debug_info   00001911  00000000  00000000  00003a0d  2**0
                  CONTENTS, READONLY, DEBUGGING
  8 .debug_abbrev 000005ef  00000000  00000000  0000531e  2**0
                  CONTENTS, READONLY, DEBUGGING
  9 .debug_line   00001667  00000000  00000000  0000590d  2**0
                  CONTENTS, READONLY, DEBUGGING
 10 .debug_frame  00000280  00000000  00000000  00006f74  2**2
                  CONTENTS, READONLY, DEBUGGING
 11 .debug_str    0000044a  00000000  00000000  000071f4  2**0
                  CONTENTS, READONLY, DEBUGGING
 12 .debug_loc    00001338  00000000  00000000  0000763e  2**0
                  CONTENTS, READONLY, DEBUGGING

Disassembly of section .text:

00000000 <__vectors>:
       0:	0c 94 55 09 	jmp	0x12aa	; 0x12aa <__ctors_end>
       4:	0c 94 72 09 	jmp	0x12e4	; 0x12e4 <__bad_interrupt>
       8:	0c 94 72 09 	jmp	0x12e4	; 0x12e4 <__bad_interrupt>
       c:	0c 94 72 09 	jmp	0x12e4	; 0x12e4 <__bad_interrupt>
      10:	0c 94 b8 09 	jmp	0x1370	; 0x1370 <__vector_4>
      14:	0c 94 72 09 	jmp	0x12e4	; 0x12e4 <__bad_interrupt>
      18:	0c 94 72 09 	jmp	0x12e4	; 0x12e4 <__bad_interrupt>
      1c:	0c 94 72 09 	jmp	0x12e4	; 0x12e4 <__bad_interrupt>
      20:	0c 94 72 09 	jmp	0x12e4	; 0x12e4 <__bad_interrupt>
      24:	0c 94 72 09 	jmp	0x12e4	; 0x12e4 <__bad_interrupt>
      28:	0c 94 72 09 	jmp	0x12e4	; 0x12e4 <__bad_interrupt>
      2c:	0c 94 72 09 	jmp	0x12e4	; 0x12e4 <__bad_interrupt>
      30:	0c 94 72 09 	jmp	0x12e4	; 0x12e4 <__bad_interrupt>
      34:	0c 94 72 09 	jmp	0x12e4	; 0x12e4 <__bad_interrupt>
      38:	0c 94 72 09 	jmp	0x12e4	; 0x12e4 <__bad_interrupt>
      3c:	0c 94 72 09 	jmp	0x12e4	; 0x12e4 <__bad_interrupt>
      40:	0c 94 72 09 	jmp	0x12e4	; 0x12e4 <__bad_interrupt>
      44:	0c 94 72 09 	jmp	0x12e4	; 0x12e4 <__bad_interrupt>
      48:	0c 94 72 09 	jmp	0x12e4	; 0x12e4 <__bad_interrupt>
      4c:	0c 94 72 09 	jmp	0x12e4	; 0x12e4 <__bad_interrupt>
      50:	0c 94 72 09 	jmp	0x12e4	; 0x12e4 <__bad_interrupt>

00000054 <ASC_MSK>:
	...
      64:	00 00 00 18 3c 3c 3c 18 18 00 18 18 00 00 00 00     ....<<<.........
      74:	00 00 00 66 66 66 00 00 00 00 00 00 00 00 00 00     ...fff..........
      84:	00 00 00 36 36 7f 36 36 36 7f 36 36 00 00 00 00     ...66.666.66....
      94:	00 18 18 3c 66 60 30 18 0c 06 66 3c 18 18 00 00     ...<f`0...f<....
      a4:	00 00 70 d8 da 76 0c 18 30 6e 5b 1b 0e 00 00 00     ..p..v..0n[.....
      b4:	00 00 00 38 6c 6c 38 60 6f 66 66 3b 00 00 00 00     ...8ll8`off;....
      c4:	00 00 00 18 18 18 00 00 00 00 00 00 00 00 00 00     ................
      d4:	00 00 00 0c 18 18 30 30 30 30 30 18 18 0c 00 00     ......00000.....
      e4:	00 00 00 30 18 18 0c 0c 0c 0c 0c 18 18 30 00 00     ...0.........0..
      f4:	00 00 00 00 00 36 1c 7f 1c 36 00 00 00 00 00 00     .....6...6......
     104:	00 00 00 00 00 18 18 7e 18 18 00 00 00 00 00 00     .......~........
	...
     11c:	00 00 1c 1c 0c 18 00 00 00 00 00 00 00 00 00 7e     ...............~
	...
     13c:	00 00 1c 1c 00 00 00 00 00 00 00 06 06 0c 0c 18     ................
     14c:	18 30 30 60 60 00 00 00 00 00 00 1e 33 37 37 33     .00``.......3773
     15c:	3b 3b 33 1e 00 00 00 00 00 00 00 0c 1c 7c 0c 0c     ;;3..........|..
     16c:	0c 0c 0c 0c 00 00 00 00 00 00 00 3c 66 66 06 0c     ...........<ff..
     17c:	18 30 60 7e 00 00 00 00 00 00 00 3c 66 66 06 1c     .0`~.......<ff..
     18c:	06 66 66 3c 00 00 00 00 00 00 00 30 30 36 36 36     .ff<.......00666
     19c:	66 7f 06 06 00 00 00 00 00 00 00 7e 60 60 60 7c     f..........~```|
     1ac:	06 06 0c 78 00 00 00 00 00 00 00 1c 18 30 7c 66     ...x.........0|f
     1bc:	66 66 66 3c 00 00 00 00 00 00 00 7e 06 0c 0c 18     fff<.......~....
     1cc:	18 30 30 30 00 00 00 00 00 00 00 3c 66 66 76 3c     .000.......<ffv<
     1dc:	6e 66 66 3c 00 00 00 00 00 00 00 3c 66 66 66 66     nff<.......<ffff
     1ec:	3e 0c 18 38 00 00 00 00 00 00 00 00 00 1c 1c 00     >..8............
     1fc:	00 00 1c 1c 00 00 00 00 00 00 00 00 00 1c 1c 00     ................
     20c:	00 00 1c 1c 0c 18 00 00 00 00 00 06 0c 18 30 60     ..............0`
     21c:	30 18 0c 06 00 00 00 00 00 00 00 00 00 00 7e 00     0.............~.
     22c:	7e 00 00 00 00 00 00 00 00 00 00 60 30 18 0c 06     ~..........`0...
     23c:	0c 18 30 60 00 00 00 00 00 00 00 3c 66 66 0c 18     ..0`.......<ff..
     24c:	18 00 18 18 00 00 00 00 00 00 00 7e c3 c3 cf db     ...........~....
     25c:	db cf c0 7f 00 00 00 00 00 00 00 18 3c 66 66 66     ............<fff
     26c:	7e 66 66 66 00 00 00 00 00 00 00 7c 66 66 66 7c     ~fff.......|fff|
     27c:	66 66 66 7c 00 00 00 00 00 00 00 3c 66 66 60 60     fff|.......<ff``
     28c:	60 66 66 3c 00 00 00 00 00 00 00 78 6c 66 66 66     `ff<.......xlfff
     29c:	66 66 6c 78 00 00 00 00 00 00 00 7e 60 60 60 7c     fflx.......~```|
     2ac:	60 60 60 7e 00 00 00 00 00 00 00 7e 60 60 60 7c     ```~.......~```|
     2bc:	60 60 60 60 00 00 00 00 00 00 00 3c 66 66 60 60     ````.......<ff``
     2cc:	6e 66 66 3e 00 00 00 00 00 00 00 66 66 66 66 7e     nff>.......ffff~
     2dc:	66 66 66 66 00 00 00 00 00 00 00 3c 18 18 18 18     ffff.......<....
     2ec:	18 18 18 3c 00 00 00 00 00 00 00 06 06 06 06 06     ...<............
     2fc:	06 66 66 3c 00 00 00 00 00 00 00 66 66 6c 6c 78     .ff<.......ffllx
     30c:	6c 6c 66 66 00 00 00 00 00 00 00 60 60 60 60 60     llff.......`````
     31c:	60 60 60 7e 00 00 00 00 00 00 00 63 63 77 6b 6b     ```~.......ccwkk
     32c:	6b 63 63 63 00 00 00 00 00 00 00 63 63 73 7b 6f     kccc.......ccs{o
     33c:	67 63 63 63 00 00 00 00 00 00 00 3c 66 66 66 66     gccc.......<ffff
     34c:	66 66 66 3c 00 00 00 00 00 00 00 7c 66 66 66 7c     fff<.......|fff|
     35c:	60 60 60 60 00 00 00 00 00 00 00 3c 66 66 66 66     ````.......<ffff
     36c:	66 66 66 3c 0c 06 00 00 00 00 00 7c 66 66 66 7c     fff<.......|fff|
     37c:	6c 66 66 66 00 00 00 00 00 00 00 3c 66 60 30 18     lfff.......<f`0.
     38c:	0c 06 66 3c 00 00 00 00 00 00 00 7e 18 18 18 18     ..f<.......~....
     39c:	18 18 18 18 00 00 00 00 00 00 00 66 66 66 66 66     ...........fffff
     3ac:	66 66 66 3c 00 00 00 00 00 00 00 66 66 66 66 66     fff<.......fffff
     3bc:	66 66 3c 18 00 00 00 00 00 00 00 63 63 63 6b 6b     ff<........ccckk
     3cc:	6b 36 36 36 00 00 00 00 00 00 00 66 66 34 18 18     k666.......ff4..
     3dc:	2c 66 66 66 00 00 00 00 00 00 00 66 66 66 66 3c     ,fff.......ffff<
     3ec:	18 18 18 18 00 00 00 00 00 00 00 7e 06 06 0c 18     ...........~....
     3fc:	30 60 60 7e 00 00 00 00 00 00 00 3c 30 30 30 30     0``~.......<0000
     40c:	30 30 30 30 30 30 3c 3c 00 00 00 60 60 30 30 18     000000<<...``00.
     41c:	18 0c 0c 06 06 00 00 00 00 00 00 3c 0c 0c 0c 0c     ...........<....
     42c:	0c 0c 0c 0c 0c 0c 3c 3c 00 18 3c 66 00 00 00 00     ......<<..<f....
	...
     450:	00 00 ff ff 00 38 18 0c 00 00 00 00 00 00 00 00     .....8..........
	...
     468:	00 3c 06 06 3e 66 66 3e 00 00 00 00 00 00 00 60     .<..>ff>.......`
     478:	60 7c 66 66 66 66 66 7c 00 00 00 00 00 00 00 00     `|fffff|........
     488:	00 3c 66 60 60 60 66 3c 00 00 00 00 00 00 00 06     .<f```f<........
     498:	06 3e 66 66 66 66 66 3e 00 00 00 00 00 00 00 00     .>fffff>........
     4a8:	00 3c 66 66 7e 60 60 3c 00 00 00 00 00 00 00 1e     .<ff~``<........
     4b8:	30 30 30 7e 30 30 30 30 00 00 00 00 00 00 00 00     000~0000........
     4c8:	00 3e 66 66 66 66 66 3e 06 06 7c 7c 00 00 00 60     .>fffff>..||...`
     4d8:	60 7c 66 66 66 66 66 66 00 00 00 00 00 00 18 18     `|ffffff........
     4e8:	00 78 18 18 18 18 18 7e 00 00 00 00 00 00 0c 0c     .x.....~........
     4f8:	00 3c 0c 0c 0c 0c 0c 0c 0c 0c 78 78 00 00 00 60     .<........xx...`
     508:	60 66 66 6c 78 6c 66 66 00 00 00 00 00 00 00 78     `fflxlff.......x
     518:	18 18 18 18 18 18 18 7e 00 00 00 00 00 00 00 00     .......~........
     528:	00 7e 6b 6b 6b 6b 6b 63 00 00 00 00 00 00 00 00     .~kkkkkc........
     538:	00 7c 66 66 66 66 66 66 00 00 00 00 00 00 00 00     .|ffffff........
     548:	00 3c 66 66 66 66 66 3c 00 00 00 00 00 00 00 00     .<fffff<........
     558:	00 7c 66 66 66 66 66 7c 60 60 60 60 00 00 00 00     .|fffff|````....
     568:	00 3e 66 66 66 66 66 3e 06 06 06 06 00 00 00 00     .>fffff>........
     578:	00 66 6e 70 60 60 60 60 00 00 00 00 00 00 00 00     .fnp````........
     588:	00 3e 60 60 3c 06 06 7c 00 00 00 00 00 00 00 30     .>``<..|.......0
     598:	30 7e 30 30 30 30 30 1e 00 00 00 00 00 00 00 00     0~00000.........
     5a8:	00 66 66 66 66 66 66 3e 00 00 00 00 00 00 00 00     .ffffff>........
     5b8:	00 66 66 66 66 66 3c 18 00 00 00 00 00 00 00 00     .fffff<.........
     5c8:	00 63 6b 6b 6b 6b 36 36 00 00 00 00 00 00 00 00     .ckkkk66........
     5d8:	00 66 66 3c 18 3c 66 66 00 00 00 00 00 00 00 00     .ff<.<ff........
     5e8:	00 66 66 66 66 66 66 3c 0c 18 f0 f0 00 00 00 00     .ffffff<........
     5f8:	00 7e 06 0c 18 30 60 7e 00 00 00 00 00 00 00 0c     .~...0`~........
     608:	18 18 18 30 60 30 18 18 18 0c 00 00 00 00 00 18     ...0`0..........
     618:	18 18 18 18 18 18 18 18 18 18 18 18 00 00 00 30     ...............0
     628:	18 18 18 0c 06 0c 18 18 18 30 00 00 00 00 00 00     .........0......
     638:	00 00 71 db 8e 00 00 00 00 00 00 00 00 00 00 00     ..q.............
     648:	00 00 00 00 00 00 1c 1c 00 00 00 00                 ............

00000654 <GB_16>:
     654:	02 00 01 00 01 00 00 00 7f fc 00 20 00 30 10 20     ........... .0. 
     664:	08 40 0c 40 04 40 04 80 00 80 01 04 ff fe 00 00     .@.@.@..........
     674:	00 00 ff fe 01 00 01 00 3f f8 31 88 29 48 25 28     ........?.1.)H%(
     684:	31 88 29 48 25 28 21 08 21 08 21 08 21 28 20 10     1.)H%(!.!.!.!( .
     694:	01 00 01 00 01 08 01 10 7d 20 05 c0 05 40 09 20     ........} ...@. 
     6a4:	09 20 11 10 11 18 21 0e c1 04 01 00 05 00 02 00     . ....!.........
     6b4:	10 40 10 20 13 fe 10 00 18 00 55 fc 55 04 91 04     .@. ......U.U...
     6c4:	11 fc 10 20 11 28 11 24 12 26 14 22 10 a0 10 40     ... .(.$.&."...@
     6d4:	10 40 10 40 7d f0 12 50 39 90 d1 c8 12 4a 65 04     .@.@}..P9....Je.
     6e4:	3f f8 11 08 11 08 1f f8 01 10 01 f8 7e 0c 00 08     ?...........~...
     6f4:	01 00 01 00 3f fc 01 00 1f f8 02 00 ff fe 04 20     ....?.......... 
     704:	08 18 3f ee c8 24 0f e0 08 20 08 20 0f e0 00 00     ..?..$... . ....
     714:	08 80 0c 80 08 40 10 20 10 30 20 18 40 0e 9f e4     .....@. .0 .@...
     724:	04 20 04 20 04 20 04 20 08 20 10 a0 20 40 40 00     . . . . . .. @@.
     734:	40 40 23 fc 20 40 0b fc 88 40 57 fc 50 00 13 f8     @@#. @...@W.P...
     744:	22 08 23 f8 e2 08 23 f8 22 08 22 08 22 28 22 10     ".#...#."."."(".
     754:	00 fc 7c 84 44 84 44 84 44 fc 7c 84 44 84 44 84     ..|.D.D.D.|.D.D.
     764:	44 fc 7c 84 00 84 01 04 01 04 02 04 04 14 00 08     D.|.............
     774:	08 40 0c 20 19 18 21 08 41 00 02 80 04 40 08 20     .@. ..!.A....@. 
     784:	10 18 2f f6 c8 14 08 10 08 10 0f f0 08 10 00 00     ../.............
     794:	7f fe 02 00 1f f0 10 10 1f f0 10 10 1f f0 10 10     ................
     7a4:	1f f0 08 00 0f f0 08 20 16 40 21 80 0e 70 70 0e     ....... .@!..pp.
     7b4:	01 00 01 00 01 00 01 00 09 40 0d 20 19 10 11 18     .........@. ....
     7c4:	21 0c 41 06 81 04 01 00 01 00 01 00 05 00 02 00     !.A.............
     7d4:	41 10 21 10 2f fe 01 10 80 00 57 fe 51 20 17 fc     A.!./.....W.Q ..
     7e4:	25 24 25 24 25 b4 c6 4c 44 84 44 04 44 14 44 08     %$%$%..LD.D.D.D.
     7f4:	04 20 04 20 ff fe 04 20 05 20 00 80 ff fe 10 00     . . ... . ......
     804:	10 00 10 00 10 00 10 00 10 00 10 00 1f fc 00 00     ................
     814:	06 20 78 20 08 20 08 20 7d fc 09 24 1d 24 1b 24     . x . . }..$.$.$
     824:	29 fc 29 24 48 20 88 20 08 20 08 20 08 20 08 20     ).)$H . . . . . 
     834:	00 00 7f fc 02 00 04 20 08 10 13 f8 3d 10 01 00     ....... ....=...
     844:	01 00 3f f8 01 00 01 00 01 00 ff fe 00 00 00 00     ..?.............
     854:	01 00 01 00 01 00 01 00 01 00 ff fe 01 00 02 80     ................
     864:	02 80 02 40 04 40 04 20 08 10 10 18 20 0e 40 04     ...@.@. .... .@.
     874:	00 20 0e 20 f0 20 10 24 10 a4 fe a8 30 b0 39 20     . . . .$....0.9 
     884:	54 60 94 50 10 50 10 88 10 88 11 04 12 06 14 04     T`.P.P..........
     894:	10 20 18 20 10 20 20 20 3e 20 22 30 62 28 52 26     . . .   > "0b(R&
     8a4:	94 24 14 20 08 20 14 20 23 20 40 c0 80 3e 00 00     .$. . . # @..>..
     8b4:	1f f0 10 10 1f f0 10 10 1f f0 02 00 3f f8 02 20     ............?.. 
     8c4:	ff fe 03 00 0f f0 38 10 cf f0 08 10 0f f0 08 10     ......8.........
     8d4:	02 00 02 00 04 00 3f f8 20 08 20 08 20 08 20 08     ......?. . . . .
     8e4:	3f f8 20 08 20 08 20 08 20 08 3f f8 20 08 00 00     ?. . . . .?. ...
     8f4:	3f f8 01 00 7f fe 41 04 15 50 0a 28 3c 80 24 f8     ?.....A..P.(<.$.
     904:	3d 50 12 20 5c d8 53 06 50 f8 5c 88 e0 f8 00 88     =P. \.S.P.\.....
     914:	01 00 00 80 3f fe 24 44 7f f8 04 40 1f f8 04 40     ....?.$D...@...@
     924:	7f fc 04 40 0b 20 10 d8 22 0e 41 84 00 c0 00 80     ...@. ..".A.....
     934:	1f f8 01 00 7f fe 41 04 1d 70 01 00 1d 70 08 00     ......A..p...p..
     944:	08 f8 7e 88 1c f8 2a 88 28 f8 48 88 08 f8 08 88     ..~...*.(.H.....
     954:	00 80 78 f8 49 10 52 a0 50 40 60 b0 53 4e 48 40     ..x.I.R.P@`.SNH@
     964:	4b f8 68 40 52 40 43 fc 40 40 40 40 40 40 40 40     K.h@R@C.@@@@@@@@
     974:	04 00 04 00 0b f0 14 20 62 40 01 80 03 80 0c 60     ....... b@.....`
     984:	32 1e c1 04 00 c0 08 80 06 00 01 80 00 e0 00 40     2..............@
     994:	00 00 3f f8 01 00 7f fe 41 04 1d 70 01 00 1d 70     ..?.....A..p...p
     9a4:	00 00 3f f8 00 08 1f f8 00 08 00 08 3f f8 00 08     ..?.........?...
     9b4:	00 00 3f f8 21 08 21 08 21 08 3f f8 21 08 21 08     ..?.!.!.!.?.!.!.
     9c4:	21 08 3f f8 21 08 01 00 01 00 01 00 01 00 01 00     !.?.!...........
     9d4:	00 00 ff f0 00 60 00 c0 01 80 03 00 06 00 0c 00     .....`..........
     9e4:	18 00 30 00 20 00 60 04 40 04 60 06 3f fc 00 00     ..0. .`.@.`.?...
     9f4:	00 00 7f fe 01 00 01 00 3f fc 21 04 21 04 21 04     ........?.!.!.!.
     a04:	22 84 22 44 24 34 28 24 20 04 20 14 20 08 00 00     "."D$4($ . . ...
     a14:	00 00 7f fe 01 00 01 00 01 00 01 00 01 00 01 00     ................
     a24:	01 00 01 00 01 00 01 00 01 00 05 00 02 00 00 00     ................
     a34:	00 80 00 90 00 88 00 80 3f fe 20 80 20 88 20 88     ........?. . . .
     a44:	20 50 20 60 20 60 20 a0 23 12 4c 0a 40 06 80 02      P ` ` .#.L.@...
     a54:	00 00 3f f0 00 10 00 10 00 10 3f f0 20 10 20 00     ..?.......?. . .
     a64:	20 00 20 00 20 00 20 04 20 04 20 06 1f fc 00 00      . . . . . .....
     a74:	01 00 00 80 3f fe 20 80 2f f8 20 88 3f fe 20 88     ....?. ./. .?. .
     a84:	20 88 2f f8 20 88 21 40 42 20 44 10 88 0c 10 08      ./. .!@B D.....
     a94:	02 00 01 00 7f fc 00 00 10 10 08 20 04 40 ff fe     ........... .@..
     aa4:	01 00 01 00 7f f8 01 00 01 00 01 00 01 00 01 00     ................
     ab4:	00 00 01 f8 3f 00 01 00 01 00 01 00 01 00 ff fe     ....?...........
     ac4:	01 00 01 00 01 00 01 00 01 00 3f fc 00 00 00 00     ..........?.....
     ad4:	00 80 3e 90 02 a0 24 48 14 50 08 20 37 d0 c1 0e     ..>...$H.P. 7...
     ae4:	01 04 7f fc 01 00 02 40 04 20 08 18 30 0c c0 04     .......@. ..0...
     af4:	00 00 3f f0 00 20 00 40 00 80 01 00 01 00 01 04     ..?.. .@........
     b04:	ff fe 01 00 01 00 01 00 01 00 01 00 05 00 02 00     ................
     b14:	00 10 3f f8 02 10 02 10 02 10 02 10 02 10 3f f0     ..?...........?.
     b24:	04 10 04 10 04 10 04 10 04 14 7f fe 00 00 00 00     ................
     b34:	02 00 01 00 7f fe 40 04 9f f0 01 00 1f f0 11 10     ......@.........
     b44:	11 10 1f f0 11 10 11 10 1f f0 0c 20 30 18 c0 08     ........... 0...
     b54:	00 00 03 80 3c 7c 22 44 22 44 22 44 22 44 22 44     ....<|"D"D"D"D"D
     b64:	22 44 2a 44 74 5c 24 48 08 40 10 40 60 40 00 00     "D*Dt\$H.@.@`@..
     b74:	00 00 3f fc 20 00 20 00 2f f8 20 00 3f fe 25 00     ..?. . ./. .?.%.
     b84:	25 08 24 9c 24 a0 24 40 45 20 46 18 84 06 00 00     %.$.$.$@E F.....
     b94:	00 00 3f f0 20 10 20 10 20 10 20 10 3f f0 20 10     ..?. . . . .?. .
     ba4:	20 00 20 00 20 00 20 04 20 04 20 06 1f fc 00 00      . . . . . .....
     bb4:	08 00 08 00 1f f8 11 00 21 00 21 00 41 04 ff fe     ........!.!.A...
     bc4:	01 00 01 00 01 00 01 00 01 00 01 00 01 00 00 00     ................
     bd4:	01 00 01 00 01 00 3f f8 01 00 01 00 ff fe 03 00     ......?.........
     be4:	03 80 05 40 05 20 09 18 31 0e c1 04 01 00 01 00     ...@. ..1.......
     bf4:	01 00 01 00 3f f8 21 08 21 08 21 08 3f f8 21 08     ....?.!.!.!.?.!.
     c04:	21 08 21 08 3f f8 21 08 01 00 01 00 01 00 01 00     !.!.?.!.........
     c14:	00 00 ff fe 02 80 02 80 3f f8 22 88 24 88 24 88     ........?.".$.$.
     c24:	28 78 30 08 3f f8 20 08 20 08 20 08 3f f8 20 08     (x0.?. . . .?. .
     c34:	00 40 00 50 00 48 3f fe 20 40 20 40 20 48 20 48     .@.P.H?. @ @ H H
     c44:	3e 50 20 20 20 60 20 a0 43 12 4c 0a 80 06 00 02     >P   ` .C.L.....
     c54:	02 00 01 80 ff fe 01 00 02 20 04 30 08 60 1f c8     ......... .0.`..
     c64:	09 1c 02 30 0c 60 70 e0 03 18 0c 0c 70 04 00 00     ...0.`p.....p...
	...
     c80:	00 04 7f fe 00 00 00 00 00 00 00 00 00 00 00 00     ................
     c90:	00 00 00 00 00 00 00 10 3f f8 00 00 00 00 00 00     ........?.......
	...
     ca8:	00 00 00 04 7f fe 00 00 00 00 00 00 00 00 00 00     ................
     cb8:	7f fc 00 00 00 00 00 00 00 00 3f f8 00 00 00 00     ..........?.....
     cc8:	00 00 00 00 00 00 7f fe 00 00 00 00 00 00 7f fc     ................
     cd8:	44 84 44 84 44 84 44 84 44 84 44 84 48 84 48 7c     D.D.D.D.D.D.H.H|
     ce8:	50 04 60 04 40 04 7f fc 40 04 00 00 00 00 7f f8     P.`.@...@.......
     cf8:	02 00 02 00 02 00 02 00 02 20 3f f0 04 20 04 20     ......... ?.. . 
     d08:	04 20 04 20 04 24 ff fe 00 00 00 00 04 00 03 00     . . .$..........
     d18:	01 80 01 00 ff fe 00 00 00 00 04 80 06 40 04 20     .............@. 
     d28:	08 10 08 18 10 0c 20 0c 40 08 00 00 00 00 01 00     ...... .@.......
     d38:	01 00 01 00 01 00 01 fe 7f 00 01 00 01 00 01 00     ................
     d48:	01 00 01 04 01 04 01 04 00 f8 00 00 00 00 00 40     ...............@
     d58:	04 60 06 40 04 40 04 40 04 40 08 20 08 20 10 10     .`.@.@.@.@. . ..
     d68:	10 10 20 08 40 0e 80 04 00 00 00 00 02 00 02 00     .. .@...........
     d78:	02 00 02 20 7f f0 02 20 02 20 04 20 04 20 04 20     ... ... . . . . 
     d88:	08 20 08 24 10 24 20 26 40 3c 00 00 01 00 01 00     . .$.$ &@<......
     d98:	01 00 01 00 01 00 01 00 ff fe 01 00 01 00 01 00     ................
     da8:	01 00 01 00 01 00 01 00 01 00 00 00 04 00 04 00     ................
     db8:	0b f0 14 20 62 40 01 80 03 80 0c 60 32 1e c1 04     ... b@.....`2...
     dc8:	00 c0 08 80 06 00 01 80 00 e0 00 40 00 90 78 90     ...........@..x.
     dd8:	4b fe 48 90 78 90 48 90 4b fe 48 00 79 f8 49 08     K.H.x.H.K.H.y.I.
     de8:	49 08 49 f8 49 08 49 08 a9 f8 91 08 10 00 08 00     I.I.I.I.........
     df8:	08 04 7e fe 04 24 08 24 12 24 34 24 58 24 94 24     ..~..$.$.$4$X$.$
     e08:	12 44 10 44 10 84 11 14 12 08 00 00 01 00 01 00     .D.D............
     e18:	01 00 01 00 01 00 01 00 ff fe 01 00 01 00 01 00     ................
     e28:	01 00 01 00 01 00 01 00 01 00 00 00 08 20 08 20     ............. . 
     e38:	08 20 08 20 08 20 ff fe 08 20 08 20 08 20 08 20     . . . ... . . . 
     e48:	08 20 08 20 08 20 0f e0 08 20 00 00 00 00 00 00     . . . ... ......
     e58:	7f fc 00 00 00 00 00 00 00 00 3f f8 00 00 00 00     ..........?.....
     e68:	00 00 00 00 00 00 7f fe 00 00 00 00 08 00 0f fc     ................
     e78:	10 80 10 80 20 80 4f f8 88 80 08 80 08 80 08 80     .... .O.........
     e88:	ff fe 00 80 00 80 00 80 00 80 00 80 07 f0 04 10     ................
     e98:	04 10 04 10 07 f0 04 10 04 10 04 10 07 f0 04 10     ................
     ea8:	08 10 08 10 10 10 20 50 40 20 00 00 00 00 1f f0     ...... P@ ......
     eb8:	10 10 10 10 10 10 10 10 1f f0 10 10 10 10 10 10     ................
     ec8:	10 10 10 10 1f f0 10 10 00 00 00 00 02 00 01 04     ................
     ed8:	7f fe 06 60 11 88 12 48 14 28 1f f8 01 00 3f fc     ...`...H.(....?.
     ee8:	24 44 28 24 2f f4 20 14 20 14 20 08 40 00 27 fc     $D($/. . . .@.'.
     ef8:	30 40 20 40 00 80 00 80 e1 a0 22 90 24 88 28 8c     0@ @......".$.(.
     f08:	20 88 20 80 20 80 50 00 8f fe 00 00 01 00 01 00      . . .P.........
     f18:	7f fe 02 00 04 00 0f f0 18 10 28 10 4f f0 88 10     ..........(.O...
     f28:	08 10 0f f0 08 10 08 90 08 70 08 20 00 00 3f fc     .........p. ..?.
     f38:	01 00 01 00 01 00 01 00 7f fe 01 00 01 00 02 80     ................
     f48:	02 40 04 20 08 18 10 0e 20 04 40 00 00 00 1f f8     .@. .... .@.....
     f58:	10 08 1f f8 10 08 1f f8 01 00 11 00 1f fc 21 00     ..............!.
     f68:	21 00 4f f8 01 00 01 00 7f fe 00 00 22 00 22 7c     !.O........."."|
     f78:	7f 44 22 44 3e 44 22 7c 3e 44 22 44 22 44 ff 7c     .D"D>D"|>D"D"D.|
     f88:	00 44 24 84 22 84 43 14 81 08 00 00 00 00 7f fe     .D$.".C.........
     f98:	00 80 00 80 00 80 00 80 10 80 10 fc 10 80 10 80     ................
     fa8:	10 80 10 80 10 80 ff fe 00 00 00 00 00 10 00 10     ................
     fb8:	7c 10 44 10 47 fe 44 10 7c 10 45 10 44 90 44 90     |.D.G.D.|.E.D.D.
     fc8:	7c 10 00 10 00 10 00 10 00 50 00 20 0c 20 f0 20     |........P. . . 
     fd8:	10 20 11 28 fd a4 11 22 32 22 3a 20 54 22 54 22     . .(..."2": T"T"
     fe8:	90 04 10 08 10 10 10 60 11 80 16 00 20 00 13 fc     .......`.... ...
     ff8:	10 04 40 04 47 e4 44 24 44 24 47 e4 44 24 44 24     ..@.G.D$D$G.D$D$
    1008:	47 e4 40 04 40 04 40 04 40 14 40 08 40 00 21 f0     G.@.@.@.@.@.@.!.
    1018:	31 10 21 10 01 10 01 10 e2 0e 25 f8 21 08 21 08     1.!.......%.!.!.
    1028:	20 90 20 90 28 60 30 90 23 0e 0c 04 3f f8 24 48      . .(`0.#...?.$H
    1038:	24 48 3f f8 01 00 7f fc 02 00 1f f0 10 10 1f f0     $H?.............
    1048:	10 10 1f f0 10 10 1f f0 10 10 ff fe                 ............

00001054 <year_code>:
    1054:	04 ae 53 0a 57 48 55 26 bd 0d 26 50 0d 95 44 46     ..S.WHU&..&P..DF
    1064:	aa b9 05 6a 4d 09 ad 42 24 ae b6 04 ae 4a 6a 4d     ...jM..B$....JjM
    1074:	be 0a 4d 52 0d 25 46 5d 52 ba 0b 54 4e 0d 6a 43     ..MR.%F]R..TN.jC
    1084:	29 6d 37 09 5b 4b 74 9b c1 04 97 54 0a 4b 48 5b     )m7.[Kt....T.KH[
    1094:	25 bc 06 a5 50 06 d4 45 4a da b8 02 b6 4d 09 57     %...P..EJ....M.W
    10a4:	42 24 97 b7 04 97 4a 66 4b 3e 0d 4a 51 0e a5 46     B$....JfK>.JQ..F
    10b4:	56 d4 ba 05 ad 4e 02 b6 44 39 37 38 09 2e 4b 7c     V....N..D978..K|
    10c4:	96 bf 0c 95 53 0d 4a 48 6d a5 3b 0b 55 4f 05 6a     ....S.JHm.;.UO.j
    10d4:	45 4a ad b9 02 5d 4d 09 2d 42 2c 95 b6 0a 95 4a     EJ...]M.-B,....J
    10e4:	7b 4a bd 06 ca 51 0b 55 46 55 5a bb 04 da 4e 0a     {J...Q.UFUZ...N.
    10f4:	5b 43 35 2b b8 05 2b 4c 8a 95 3f 0e 95 52 06 aa     [C5+..+L..?..R..
    1104:	48 7a d5 3c 0a b5 4f 04 b6 45 4a 57 39 0a 57 4d     Hz.<..O..EJW9.WM
    1114:	05 26 42 3e 93 35 0d 95 49 75 aa be 05 6a 51 09     .&B>.5..Iu...jQ.
    1124:	6d 46 54 ae bb 04 ad 4f 0a 4d 43 4d 26 b7 0d 25     mFT....O.MCM&..%
    1134:	4b 8d 52 bf 0b 54 52 0b 6a 47 69 6d 3c 09 5b 50     K.R..TR.jGim<.[P
    1144:	04 9b 45 4a 4b b9 0a 4b 4d ab 25 c2 06 a5 54 06     ..EJK..KM.%...T.
    1154:	d4 49 6a da 3d 0a b6 51 09 37 46 54 97 bb 04 97     .Ij.=..Q.7FT....
    1164:	4f 06 4b 44 36 a5 37 0e a5 4a 86 b2 bf 05 ac 53     O.KD6.7..J.....S
    1174:	0a b6 47 59 36 bc 09 2e 50 0c 96 45 4d 4a b8 0d     ..GY6...P..EMJ..
    1184:	4a 4c 0d a5 41 25 aa b6 05 6a 49 7a ad bd 02 5d     JL..A%...jIz...]
    1194:	52 09 2d 47 5c 95 ba 0a 95 4e 0b 4a 43 4b 55 37     R.-G\....N.JCKU7
    11a4:	0a d5 4a 95 5a bf 04 ba 53 0a 5b 48 65 2b bc 05     ..J.Z...S.[He+..
    11b4:	2b 50 0a 93 45 47 4a b9 06 aa 4c 0a d5 41 24 da     +P..EGJ...L..A$.
    11c4:	b6 04 b6 4a 69 57 3d 0a 4e 51 0d 26 46 5e 93 3a     ...JiW=.NQ.&F^.:
    11d4:	0d 53 4d 05 aa 43 36 b5 37 09 6d 4b b4 ae bf 04     .SM..C6.7.mK....
    11e4:	ad 53 0a 4d 48 6d 25 bc 0d 25 4f 0d 52 44 5d aa     .S.MHm%..%O.RD].
    11f4:	38 0b 5a 4c 05 6d 41 24 ad b6 04 9b 4a 7a 4b be     8.ZL.mA$....JzK.
    1204:	0a 4b 51 0a a5 46 5b 52 ba 06 d2 4e 0a da 42 35     .KQ..F[R...N..B5
    1214:	5b 37 09 37 4b 84 97 c1 04 97 53 06 4b 48 66 a5     [7.7K.....S.KHf.
    1224:	3c 0e a5 4f 06 b2 44 4a b6 38 0a ae 4c 09 2e 42     <..O..DJ.8..L..B
    1234:	3c 97 35 0c 96 49 7d 4a bd 0d 4a 51 0d a5 45 55     <.5..I}J..JQ..EU
    1244:	aa ba 05 6a 4e 0a 6d 43 45 2e b7 05 2d 4b 8a 95     ...jN.mCE...-K..
    1254:	bf 0a 95 53 0b 4a 47 6b 55 3b 0a d5 4f 05 5a 45     ...S.JGkU;..O.ZE
    1264:	4a 5d 38 0a 5b 4c 05 2b 42 3a 93 b6 06 93 49 77     J]8.[L.+B:....Iw
    1274:	29 bd 06 aa 51 0a d5 46 54 da ba 04 b6 4e 0a 57     )...Q..FT....N.W
    1284:	43 45 27 38 0d 26 4a 8e 93 3e 0d 52 52 0d aa 47     CE'8.&J..>.RR..G
    1294:	66 b5 3b 05 6d 4f 04 ae 45 4a 4e b9 0a 4d 4c 0d     f.;.mO..EJN..ML.
    12a4:	15 41 2d 92 b5 00                                   .A-...

000012aa <__ctors_end>:
    12aa:	11 24       	eor	r1, r1
    12ac:	1f be       	out	0x3f, r1	; 63
    12ae:	cf e5       	ldi	r28, 0x5F	; 95
    12b0:	d4 e0       	ldi	r29, 0x04	; 4
    12b2:	de bf       	out	0x3e, r29	; 62
    12b4:	cd bf       	out	0x3d, r28	; 61

000012b6 <__do_copy_data>:
    12b6:	13 e0       	ldi	r17, 0x03	; 3
    12b8:	a0 e6       	ldi	r26, 0x60	; 96
    12ba:	b0 e0       	ldi	r27, 0x00	; 0
    12bc:	e6 e2       	ldi	r30, 0x26	; 38
    12be:	fc e2       	ldi	r31, 0x2C	; 44
    12c0:	02 c0       	rjmp	.+4      	; 0x12c6 <.do_copy_data_start>

000012c2 <.do_copy_data_loop>:
    12c2:	05 90       	lpm	r0, Z+
    12c4:	0d 92       	st	X+, r0

000012c6 <.do_copy_data_start>:
    12c6:	a2 33       	cpi	r26, 0x32	; 50
    12c8:	b1 07       	cpc	r27, r17
    12ca:	d9 f7       	brne	.-10     	; 0x12c2 <.do_copy_data_loop>

000012cc <__do_clear_bss>:
    12cc:	13 e0       	ldi	r17, 0x03	; 3
    12ce:	a2 e3       	ldi	r26, 0x32	; 50
    12d0:	b3 e0       	ldi	r27, 0x03	; 3
    12d2:	01 c0       	rjmp	.+2      	; 0x12d6 <.do_clear_bss_start>

000012d4 <.do_clear_bss_loop>:
    12d4:	1d 92       	st	X+, r1

000012d6 <.do_clear_bss_start>:
    12d6:	ad 33       	cpi	r26, 0x3D	; 61
    12d8:	b1 07       	cpc	r27, r17
    12da:	e1 f7       	brne	.-8      	; 0x12d4 <.do_clear_bss_loop>
    12dc:	0e 94 86 0c 	call	0x190c	; 0x190c <main>
    12e0:	0c 94 11 16 	jmp	0x2c22	; 0x2c22 <_exit>

000012e4 <__bad_interrupt>:
    12e4:	0c 94 00 00 	jmp	0	; 0x0 <__vectors>

000012e8 <getweekday>:
volatile signed char Day=0;
volatile unsigned char Setmodebit=0;
#define leapYear_Sign ((Year%4==0)&&(Year%100!=0)||(Year%400==0))
void getweekday(unsigned char weekday)
{
	switch(weekday){
    12e8:	83 30       	cpi	r24, 0x03	; 3
    12ea:	e9 f0       	breq	.+58     	; 0x1326 <getweekday+0x3e>
    12ec:	84 30       	cpi	r24, 0x04	; 4
    12ee:	28 f4       	brcc	.+10     	; 0x12fa <getweekday+0x12>
    12f0:	81 30       	cpi	r24, 0x01	; 1
    12f2:	79 f0       	breq	.+30     	; 0x1312 <getweekday+0x2a>
    12f4:	82 30       	cpi	r24, 0x02	; 2
    12f6:	90 f4       	brcc	.+36     	; 0x131c <getweekday+0x34>
    12f8:	07 c0       	rjmp	.+14     	; 0x1308 <getweekday+0x20>
    12fa:	85 30       	cpi	r24, 0x05	; 5
    12fc:	f1 f0       	breq	.+60     	; 0x133a <getweekday+0x52>
    12fe:	85 30       	cpi	r24, 0x05	; 5
    1300:	b8 f0       	brcs	.+46     	; 0x1330 <getweekday+0x48>
    1302:	86 30       	cpi	r24, 0x06	; 6
    1304:	39 f5       	brne	.+78     	; 0x1354 <getweekday+0x6c>
    1306:	20 c0       	rjmp	.+64     	; 0x1348 <getweekday+0x60>
		case 0:	NYRyang[19]=('日'&0xff00)>>8;
    1308:	88 ec       	ldi	r24, 0xC8	; 200
    130a:	80 93 73 00 	sts	0x0073, r24
				NYRyang[20]=('日'&0x00ff);
    130e:	85 ed       	ldi	r24, 0xD5	; 213
    1310:	18 c0       	rjmp	.+48     	; 0x1342 <getweekday+0x5a>
				break;
		case 1:	NYRyang[19]=('一'&0xff00)>>8;
    1312:	82 ed       	ldi	r24, 0xD2	; 210
    1314:	80 93 73 00 	sts	0x0073, r24
				NYRyang[20]=('一'&0x00ff);
    1318:	8b eb       	ldi	r24, 0xBB	; 187
    131a:	13 c0       	rjmp	.+38     	; 0x1342 <getweekday+0x5a>
				break;
		case 2:	NYRyang[19]=('二'&0xff00)>>8;
    131c:	86 eb       	ldi	r24, 0xB6	; 182
    131e:	80 93 73 00 	sts	0x0073, r24
				NYRyang[20]=('二'&0x00ff);
    1322:	8e ef       	ldi	r24, 0xFE	; 254
    1324:	0e c0       	rjmp	.+28     	; 0x1342 <getweekday+0x5a>
				break;
		case 3:	NYRyang[19]=('三'&0xff00)>>8;
    1326:	88 ec       	ldi	r24, 0xC8	; 200
    1328:	80 93 73 00 	sts	0x0073, r24
				NYRyang[20]=('三'&0x00ff);
    132c:	8d ef       	ldi	r24, 0xFD	; 253
    132e:	09 c0       	rjmp	.+18     	; 0x1342 <getweekday+0x5a>
				break;
		case 4:	NYRyang[19]=('四'&0xff00)>>8;
    1330:	8b ec       	ldi	r24, 0xCB	; 203
    1332:	80 93 73 00 	sts	0x0073, r24
				NYRyang[20]=('四'&0x00ff);
    1336:	84 ec       	ldi	r24, 0xC4	; 196
    1338:	04 c0       	rjmp	.+8      	; 0x1342 <getweekday+0x5a>
				break;	
		case 5:	NYRyang[19]=('五'&0xff00)>>8;
    133a:	8e ec       	ldi	r24, 0xCE	; 206
    133c:	80 93 73 00 	sts	0x0073, r24
				NYRyang[20]=('五'&0x00ff);
    1340:	85 ee       	ldi	r24, 0xE5	; 229
    1342:	80 93 74 00 	sts	0x0074, r24
    1346:	08 95       	ret
				break;
		case 6:	NYRyang[19]=('六'&0xff00)>>8;
    1348:	81 ec       	ldi	r24, 0xC1	; 193
    134a:	80 93 73 00 	sts	0x0073, r24
				NYRyang[20]=('六'&0x00ff);
    134e:	89 ef       	ldi	r24, 0xF9	; 249
    1350:	80 93 74 00 	sts	0x0074, r24
    1354:	08 95       	ret

00001356 <time2_RTCinit>:
	NYRyin[10]=NLyear[3]/10+'0';
	NYRyin[11]=NLyear[3]%10+'0';
}
void time2_RTCinit(void)
{
	TCCR2=0X07;
    1356:	87 e0       	ldi	r24, 0x07	; 7
    1358:	85 bd       	out	0x25, r24	; 37
	ASSR=0X08;
    135a:	88 e0       	ldi	r24, 0x08	; 8
    135c:	82 bd       	out	0x22, r24	; 34
	TCNT2=0Xdf;
    135e:	8f ed       	ldi	r24, 0xDF	; 223
    1360:	84 bd       	out	0x24, r24	; 36
	while(ASSR&0X05);
    1362:	82 b5       	in	r24, 0x22	; 34
    1364:	85 70       	andi	r24, 0x05	; 5
    1366:	e9 f7       	brne	.-6      	; 0x1362 <time2_RTCinit+0xc>
	TIMSK=0X40;
    1368:	80 e4       	ldi	r24, 0x40	; 64
    136a:	89 bf       	out	0x39, r24	; 57
	asm("sei");
    136c:	78 94       	sei
}
    136e:	08 95       	ret

00001370 <__vector_4>:
		}
	}	

}
ISR(TIMER2_OVF_vect)
{
    1370:	1f 92       	push	r1
    1372:	0f 92       	push	r0
    1374:	0f b6       	in	r0, 0x3f	; 63
    1376:	0f 92       	push	r0
    1378:	11 24       	eor	r1, r1
    137a:	8f 93       	push	r24
	TCNT2=0Xdf;
    137c:	8f ed       	ldi	r24, 0xDF	; 223
    137e:	84 bd       	out	0x24, r24	; 36
	while(ASSR&0X04);
    1380:	02 b4       	in	r0, 0x22	; 34
    1382:	02 fc       	sbrc	r0, 2
    1384:	fd cf       	rjmp	.-6      	; 0x1380 <__vector_4+0x10>
	if(Timechange==FALSE)
    1386:	80 91 32 03 	lds	r24, 0x0332
    138a:	88 23       	and	r24, r24
    138c:	31 f4       	brne	.+12     	; 0x139a <__vector_4+0x2a>
		Second++;
    138e:	80 91 34 03 	lds	r24, 0x0334
    1392:	8f 5f       	subi	r24, 0xFF	; 255
    1394:	80 93 34 03 	sts	0x0334, r24
    1398:	05 c0       	rjmp	.+10     	; 0x13a4 <__vector_4+0x34>
	else
		Displaychange++;
    139a:	80 91 33 03 	lds	r24, 0x0333
    139e:	8f 5f       	subi	r24, 0xFF	; 255
    13a0:	80 93 33 03 	sts	0x0333, r24
	DisplayTime=TRUE;
    13a4:	81 e0       	ldi	r24, 0x01	; 1
    13a6:	80 93 9f 00 	sts	0x009F, r24
}
    13aa:	8f 91       	pop	r24
    13ac:	0f 90       	pop	r0
    13ae:	0f be       	out	0x3f, r0	; 63
    13b0:	0f 90       	pop	r0
    13b2:	1f 90       	pop	r1
    13b4:	18 95       	reti

000013b6 <key_deal>:
	TIMSK=0X40;
	asm("sei");
}
void key_deal(void)
{
	if(PIND&0X0f){
    13b6:	80 b3       	in	r24, 0x10	; 16
    13b8:	90 e0       	ldi	r25, 0x00	; 0
    13ba:	8f 70       	andi	r24, 0x0F	; 15
    13bc:	90 70       	andi	r25, 0x00	; 0
    13be:	89 2b       	or	r24, r25
    13c0:	09 f4       	brne	.+2      	; 0x13c4 <key_deal+0xe>
    13c2:	18 c2       	rjmp	.+1072   	; 0x17f4 <key_deal+0x43e>
    13c4:	84 ef       	ldi	r24, 0xF4	; 244
    13c6:	91 e0       	ldi	r25, 0x01	; 1
    milliseconds can be achieved.
 */
void
_delay_loop_2(uint16_t __count)
{
	__asm__ volatile (
    13c8:	28 ec       	ldi	r18, 0xC8	; 200
    13ca:	30 e0       	ldi	r19, 0x00	; 0
    13cc:	f9 01       	movw	r30, r18
    13ce:	31 97       	sbiw	r30, 0x01	; 1
    13d0:	f1 f7       	brne	.-4      	; 0x13ce <key_deal+0x18>
		__ticks = (uint16_t) (__ms * 10.0);
		while(__ticks)
		{
			// wait 1/10 ms
			_delay_loop_2(((F_CPU) / 4e3) / 10);
			__ticks --;
    13d2:	01 97       	sbiw	r24, 0x01	; 1
		__ticks = 1;
	else if (__tmp > 65535)
	{
		//	__ticks = requested delay in 1/10 ms
		__ticks = (uint16_t) (__ms * 10.0);
		while(__ticks)
    13d4:	d9 f7       	brne	.-10     	; 0x13cc <key_deal+0x16>
			_delay_ms(50);
		if(PIND&0X0f){			
    13d6:	80 b3       	in	r24, 0x10	; 16
    13d8:	90 e0       	ldi	r25, 0x00	; 0
    13da:	8f 70       	andi	r24, 0x0F	; 15
    13dc:	90 70       	andi	r25, 0x00	; 0
    13de:	89 2b       	or	r24, r25
    13e0:	09 f4       	brne	.+2      	; 0x13e4 <key_deal+0x2e>
    13e2:	08 c2       	rjmp	.+1040   	; 0x17f4 <key_deal+0x43e>
			if(PIND&0X01){
    13e4:	80 9b       	sbis	0x10, 0	; 16
    13e6:	10 c0       	rjmp	.+32     	; 0x1408 <key_deal+0x52>
				Setmodebit++;
    13e8:	80 91 3a 03 	lds	r24, 0x033A
    13ec:	8f 5f       	subi	r24, 0xFF	; 255
    13ee:	80 93 3a 03 	sts	0x033A, r24
				if(	Setmodebit>6)
    13f2:	80 91 3a 03 	lds	r24, 0x033A
    13f6:	87 30       	cpi	r24, 0x07	; 7
    13f8:	18 f0       	brcs	.+6      	; 0x1400 <key_deal+0x4a>
					Setmodebit=1;
    13fa:	81 e0       	ldi	r24, 0x01	; 1
    13fc:	80 93 3a 03 	sts	0x033A, r24
				Timechange=TRUE;				
    1400:	81 e0       	ldi	r24, 0x01	; 1
    1402:	80 93 32 03 	sts	0x0332, r24
    1406:	e4 c1       	rjmp	.+968    	; 0x17d0 <key_deal+0x41a>
				
			}
			else if((PIND&0X02)&&(Timechange==TRUE)){
    1408:	81 9b       	sbis	0x10, 1	; 16
    140a:	e7 c0       	rjmp	.+462    	; 0x15da <key_deal+0x224>
    140c:	80 91 32 03 	lds	r24, 0x0332
    1410:	81 30       	cpi	r24, 0x01	; 1
    1412:	09 f0       	breq	.+2      	; 0x1416 <key_deal+0x60>
    1414:	e2 c0       	rjmp	.+452    	; 0x15da <key_deal+0x224>
				Displaychange=2;
    1416:	82 e0       	ldi	r24, 0x02	; 2
    1418:	80 93 33 03 	sts	0x0333, r24
				if(Setmodebit==1){
    141c:	80 91 3a 03 	lds	r24, 0x033A
    1420:	81 30       	cpi	r24, 0x01	; 1
    1422:	69 f4       	brne	.+26     	; 0x143e <key_deal+0x88>
					Second++;
    1424:	80 91 34 03 	lds	r24, 0x0334
    1428:	8f 5f       	subi	r24, 0xFF	; 255
    142a:	80 93 34 03 	sts	0x0334, r24
					if(Second==60)
    142e:	80 91 34 03 	lds	r24, 0x0334
    1432:	8c 33       	cpi	r24, 0x3C	; 60
    1434:	09 f0       	breq	.+2      	; 0x1438 <key_deal+0x82>
    1436:	cc c1       	rjmp	.+920    	; 0x17d0 <key_deal+0x41a>
						Second=0;
    1438:	10 92 34 03 	sts	0x0334, r1
    143c:	c9 c1       	rjmp	.+914    	; 0x17d0 <key_deal+0x41a>
				}
				else if(Setmodebit==2){		
    143e:	80 91 3a 03 	lds	r24, 0x033A
    1442:	82 30       	cpi	r24, 0x02	; 2
    1444:	69 f4       	brne	.+26     	; 0x1460 <key_deal+0xaa>
					Minute++;
    1446:	80 91 35 03 	lds	r24, 0x0335
    144a:	8f 5f       	subi	r24, 0xFF	; 255
    144c:	80 93 35 03 	sts	0x0335, r24
					if(Minute==60)
    1450:	80 91 35 03 	lds	r24, 0x0335
    1454:	8c 33       	cpi	r24, 0x3C	; 60
    1456:	09 f0       	breq	.+2      	; 0x145a <key_deal+0xa4>
    1458:	bb c1       	rjmp	.+886    	; 0x17d0 <key_deal+0x41a>
						Minute=0;
    145a:	10 92 35 03 	sts	0x0335, r1
    145e:	b8 c1       	rjmp	.+880    	; 0x17d0 <key_deal+0x41a>
				}
				else if(Setmodebit==3){
    1460:	80 91 3a 03 	lds	r24, 0x033A
    1464:	83 30       	cpi	r24, 0x03	; 3
    1466:	69 f4       	brne	.+26     	; 0x1482 <key_deal+0xcc>
					Hour++;
    1468:	80 91 a1 00 	lds	r24, 0x00A1
    146c:	8f 5f       	subi	r24, 0xFF	; 255
    146e:	80 93 a1 00 	sts	0x00A1, r24
					if(Hour==24)
    1472:	80 91 a1 00 	lds	r24, 0x00A1
    1476:	88 31       	cpi	r24, 0x18	; 24
    1478:	09 f0       	breq	.+2      	; 0x147c <key_deal+0xc6>
    147a:	aa c1       	rjmp	.+852    	; 0x17d0 <key_deal+0x41a>
						Hour=0;
    147c:	10 92 a1 00 	sts	0x00A1, r1
    1480:	a7 c1       	rjmp	.+846    	; 0x17d0 <key_deal+0x41a>
				}
				else if(Setmodebit==4){
    1482:	80 91 3a 03 	lds	r24, 0x033A
    1486:	84 30       	cpi	r24, 0x04	; 4
    1488:	09 f0       	breq	.+2      	; 0x148c <key_deal+0xd6>
    148a:	85 c0       	rjmp	.+266    	; 0x1596 <key_deal+0x1e0>
					if((Month==2)&&((leapYear_Sign==0)&&(Day>=29)))
    148c:	80 91 38 03 	lds	r24, 0x0338
    1490:	82 30       	cpi	r24, 0x02	; 2
    1492:	f9 f4       	brne	.+62     	; 0x14d2 <key_deal+0x11c>
    1494:	80 91 36 03 	lds	r24, 0x0336
    1498:	90 91 37 03 	lds	r25, 0x0337
    149c:	83 70       	andi	r24, 0x03	; 3
    149e:	90 70       	andi	r25, 0x00	; 0
    14a0:	89 2b       	or	r24, r25
    14a2:	51 f4       	brne	.+20     	; 0x14b8 <key_deal+0x102>
    14a4:	80 91 36 03 	lds	r24, 0x0336
    14a8:	90 91 37 03 	lds	r25, 0x0337
    14ac:	64 e6       	ldi	r22, 0x64	; 100
    14ae:	70 e0       	ldi	r23, 0x00	; 0
    14b0:	0e 94 fe 15 	call	0x2bfc	; 0x2bfc <__divmodhi4>
    14b4:	89 2b       	or	r24, r25
    14b6:	69 f4       	brne	.+26     	; 0x14d2 <key_deal+0x11c>
    14b8:	80 91 36 03 	lds	r24, 0x0336
    14bc:	90 91 37 03 	lds	r25, 0x0337
    14c0:	60 e9       	ldi	r22, 0x90	; 144
    14c2:	71 e0       	ldi	r23, 0x01	; 1
    14c4:	0e 94 fe 15 	call	0x2bfc	; 0x2bfc <__divmodhi4>
    14c8:	89 2b       	or	r24, r25
    14ca:	19 f0       	breq	.+6      	; 0x14d2 <key_deal+0x11c>
    14cc:	87 c1       	rjmp	.+782    	; 0x17dc <key_deal+0x426>
						Day=0;
    14ce:	10 92 39 03 	sts	0x0339, r1
					if((Month==2)&&((leapYear_Sign==1)&&(Day>=28)))
    14d2:	80 91 38 03 	lds	r24, 0x0338
    14d6:	82 30       	cpi	r24, 0x02	; 2
    14d8:	11 f5       	brne	.+68     	; 0x151e <key_deal+0x168>
    14da:	80 91 36 03 	lds	r24, 0x0336
    14de:	90 91 37 03 	lds	r25, 0x0337
    14e2:	83 70       	andi	r24, 0x03	; 3
    14e4:	90 70       	andi	r25, 0x00	; 0
    14e6:	89 2b       	or	r24, r25
    14e8:	51 f4       	brne	.+20     	; 0x14fe <key_deal+0x148>
    14ea:	80 91 36 03 	lds	r24, 0x0336
    14ee:	90 91 37 03 	lds	r25, 0x0337
    14f2:	64 e6       	ldi	r22, 0x64	; 100
    14f4:	70 e0       	ldi	r23, 0x00	; 0
    14f6:	0e 94 fe 15 	call	0x2bfc	; 0x2bfc <__divmodhi4>
    14fa:	89 2b       	or	r24, r25
    14fc:	51 f4       	brne	.+20     	; 0x1512 <key_deal+0x15c>
    14fe:	80 91 36 03 	lds	r24, 0x0336
    1502:	90 91 37 03 	lds	r25, 0x0337
    1506:	60 e9       	ldi	r22, 0x90	; 144
    1508:	71 e0       	ldi	r23, 0x01	; 1
    150a:	0e 94 fe 15 	call	0x2bfc	; 0x2bfc <__divmodhi4>
    150e:	89 2b       	or	r24, r25
    1510:	31 f4       	brne	.+12     	; 0x151e <key_deal+0x168>
    1512:	80 91 39 03 	lds	r24, 0x0339
    1516:	8c 31       	cpi	r24, 0x1C	; 28
    1518:	14 f0       	brlt	.+4      	; 0x151e <key_deal+0x168>
						Day=0;
    151a:	10 92 39 03 	sts	0x0339, r1
					if(((Month==1)||(Month==3)||(Month==5)||(Month==7)||(Month==8)||(Month==10)||(Month==12))&&(Day>=31))
    151e:	80 91 38 03 	lds	r24, 0x0338
    1522:	81 30       	cpi	r24, 0x01	; 1
    1524:	c1 f0       	breq	.+48     	; 0x1556 <key_deal+0x1a0>
    1526:	80 91 38 03 	lds	r24, 0x0338
    152a:	83 30       	cpi	r24, 0x03	; 3
    152c:	a1 f0       	breq	.+40     	; 0x1556 <key_deal+0x1a0>
    152e:	80 91 38 03 	lds	r24, 0x0338
    1532:	85 30       	cpi	r24, 0x05	; 5
    1534:	81 f0       	breq	.+32     	; 0x1556 <key_deal+0x1a0>
    1536:	80 91 38 03 	lds	r24, 0x0338
    153a:	87 30       	cpi	r24, 0x07	; 7
    153c:	61 f0       	breq	.+24     	; 0x1556 <key_deal+0x1a0>
    153e:	80 91 38 03 	lds	r24, 0x0338
    1542:	88 30       	cpi	r24, 0x08	; 8
    1544:	41 f0       	breq	.+16     	; 0x1556 <key_deal+0x1a0>
    1546:	80 91 38 03 	lds	r24, 0x0338
    154a:	8a 30       	cpi	r24, 0x0A	; 10
    154c:	21 f0       	breq	.+8      	; 0x1556 <key_deal+0x1a0>
    154e:	80 91 38 03 	lds	r24, 0x0338
    1552:	8c 30       	cpi	r24, 0x0C	; 12
    1554:	31 f4       	brne	.+12     	; 0x1562 <key_deal+0x1ac>
    1556:	80 91 39 03 	lds	r24, 0x0339
    155a:	8f 31       	cpi	r24, 0x1F	; 31
    155c:	14 f0       	brlt	.+4      	; 0x1562 <key_deal+0x1ac>
						Day=0;
    155e:	10 92 39 03 	sts	0x0339, r1
					if(((Month==4)||(Month==6)||(Month==9)||(Month==11))&&(Day>=30))
    1562:	80 91 38 03 	lds	r24, 0x0338
    1566:	84 30       	cpi	r24, 0x04	; 4
    1568:	61 f0       	breq	.+24     	; 0x1582 <key_deal+0x1cc>
    156a:	80 91 38 03 	lds	r24, 0x0338
    156e:	86 30       	cpi	r24, 0x06	; 6
    1570:	41 f0       	breq	.+16     	; 0x1582 <key_deal+0x1cc>
    1572:	80 91 38 03 	lds	r24, 0x0338
    1576:	89 30       	cpi	r24, 0x09	; 9
    1578:	21 f0       	breq	.+8      	; 0x1582 <key_deal+0x1cc>
    157a:	80 91 38 03 	lds	r24, 0x0338
    157e:	8b 30       	cpi	r24, 0x0B	; 11
    1580:	31 f4       	brne	.+12     	; 0x158e <key_deal+0x1d8>
    1582:	80 91 39 03 	lds	r24, 0x0339
    1586:	8e 31       	cpi	r24, 0x1E	; 30
    1588:	14 f0       	brlt	.+4      	; 0x158e <key_deal+0x1d8>
						Day=0;
    158a:	10 92 39 03 	sts	0x0339, r1
					Day++;
    158e:	80 91 39 03 	lds	r24, 0x0339
    1592:	8f 5f       	subi	r24, 0xFF	; 255
    1594:	ec c0       	rjmp	.+472    	; 0x176e <key_deal+0x3b8>
					
				}
				else if(Setmodebit==5){
    1596:	80 91 3a 03 	lds	r24, 0x033A
    159a:	85 30       	cpi	r24, 0x05	; 5
    159c:	59 f4       	brne	.+22     	; 0x15b4 <key_deal+0x1fe>
					if(Month==12)
    159e:	80 91 38 03 	lds	r24, 0x0338
    15a2:	8c 30       	cpi	r24, 0x0C	; 12
    15a4:	19 f4       	brne	.+6      	; 0x15ac <key_deal+0x1f6>
						Month=1;
    15a6:	81 e0       	ldi	r24, 0x01	; 1
    15a8:	80 93 38 03 	sts	0x0338, r24
					Month++;
    15ac:	80 91 38 03 	lds	r24, 0x0338
    15b0:	8f 5f       	subi	r24, 0xFF	; 255
    15b2:	ee c0       	rjmp	.+476    	; 0x1790 <key_deal+0x3da>
				}
				else{
					if(Year==2099)
    15b4:	80 91 36 03 	lds	r24, 0x0336
    15b8:	90 91 37 03 	lds	r25, 0x0337
    15bc:	83 53       	subi	r24, 0x33	; 51
    15be:	98 40       	sbci	r25, 0x08	; 8
    15c0:	31 f4       	brne	.+12     	; 0x15ce <key_deal+0x218>
						Year=1900;
    15c2:	8c e6       	ldi	r24, 0x6C	; 108
    15c4:	97 e0       	ldi	r25, 0x07	; 7
    15c6:	90 93 37 03 	sts	0x0337, r25
    15ca:	80 93 36 03 	sts	0x0336, r24
					Year++;
    15ce:	80 91 36 03 	lds	r24, 0x0336
    15d2:	90 91 37 03 	lds	r25, 0x0337
    15d6:	01 96       	adiw	r24, 0x01	; 1
    15d8:	f0 c0       	rjmp	.+480    	; 0x17ba <key_deal+0x404>
				}
			}
			else if((PIND&0X04)&&(Timechange==TRUE)){
    15da:	82 9b       	sbis	0x10, 2	; 16
    15dc:	f3 c0       	rjmp	.+486    	; 0x17c4 <key_deal+0x40e>
    15de:	80 91 32 03 	lds	r24, 0x0332
    15e2:	81 30       	cpi	r24, 0x01	; 1
    15e4:	09 f0       	breq	.+2      	; 0x15e8 <key_deal+0x232>
    15e6:	ee c0       	rjmp	.+476    	; 0x17c4 <key_deal+0x40e>
				Displaychange=2;
    15e8:	82 e0       	ldi	r24, 0x02	; 2
    15ea:	80 93 33 03 	sts	0x0333, r24
				if(Setmodebit==1){
    15ee:	80 91 3a 03 	lds	r24, 0x033A
    15f2:	81 30       	cpi	r24, 0x01	; 1
    15f4:	69 f4       	brne	.+26     	; 0x1610 <key_deal+0x25a>
					Second--;
    15f6:	80 91 34 03 	lds	r24, 0x0334
    15fa:	81 50       	subi	r24, 0x01	; 1
    15fc:	80 93 34 03 	sts	0x0334, r24
					if(Second<0)
    1600:	80 91 34 03 	lds	r24, 0x0334
    1604:	87 ff       	sbrs	r24, 7
    1606:	e4 c0       	rjmp	.+456    	; 0x17d0 <key_deal+0x41a>
						Second=59;
    1608:	8b e3       	ldi	r24, 0x3B	; 59
    160a:	80 93 34 03 	sts	0x0334, r24
    160e:	e0 c0       	rjmp	.+448    	; 0x17d0 <key_deal+0x41a>
				}
				else if(Setmodebit==2){		
    1610:	80 91 3a 03 	lds	r24, 0x033A
    1614:	82 30       	cpi	r24, 0x02	; 2
    1616:	69 f4       	brne	.+26     	; 0x1632 <key_deal+0x27c>
					Minute--;
    1618:	80 91 35 03 	lds	r24, 0x0335
    161c:	81 50       	subi	r24, 0x01	; 1
    161e:	80 93 35 03 	sts	0x0335, r24
					if(Minute<0)
    1622:	80 91 35 03 	lds	r24, 0x0335
    1626:	87 ff       	sbrs	r24, 7
    1628:	d3 c0       	rjmp	.+422    	; 0x17d0 <key_deal+0x41a>
						Minute=59;
    162a:	8b e3       	ldi	r24, 0x3B	; 59
    162c:	80 93 35 03 	sts	0x0335, r24
    1630:	cf c0       	rjmp	.+414    	; 0x17d0 <key_deal+0x41a>
				}
				else if(Setmodebit==3){
    1632:	80 91 3a 03 	lds	r24, 0x033A
    1636:	83 30       	cpi	r24, 0x03	; 3
    1638:	69 f4       	brne	.+26     	; 0x1654 <key_deal+0x29e>
					Hour--;
    163a:	80 91 a1 00 	lds	r24, 0x00A1
    163e:	81 50       	subi	r24, 0x01	; 1
    1640:	80 93 a1 00 	sts	0x00A1, r24
					if(Hour<0)
    1644:	80 91 a1 00 	lds	r24, 0x00A1
    1648:	87 ff       	sbrs	r24, 7
    164a:	c2 c0       	rjmp	.+388    	; 0x17d0 <key_deal+0x41a>
						Hour=23;
    164c:	87 e1       	ldi	r24, 0x17	; 23
    164e:	80 93 a1 00 	sts	0x00A1, r24
    1652:	be c0       	rjmp	.+380    	; 0x17d0 <key_deal+0x41a>
				}
				else if(Setmodebit==4){					
    1654:	80 91 3a 03 	lds	r24, 0x033A
    1658:	84 30       	cpi	r24, 0x04	; 4
    165a:	09 f0       	breq	.+2      	; 0x165e <key_deal+0x2a8>
    165c:	8b c0       	rjmp	.+278    	; 0x1774 <key_deal+0x3be>
					if((Month==2)&&((leapYear_Sign==0)&&(Day==1)))
    165e:	80 91 38 03 	lds	r24, 0x0338
    1662:	82 30       	cpi	r24, 0x02	; 2
    1664:	01 f5       	brne	.+64     	; 0x16a6 <key_deal+0x2f0>
    1666:	80 91 36 03 	lds	r24, 0x0336
    166a:	90 91 37 03 	lds	r25, 0x0337
    166e:	83 70       	andi	r24, 0x03	; 3
    1670:	90 70       	andi	r25, 0x00	; 0
    1672:	89 2b       	or	r24, r25
    1674:	51 f4       	brne	.+20     	; 0x168a <key_deal+0x2d4>
    1676:	80 91 36 03 	lds	r24, 0x0336
    167a:	90 91 37 03 	lds	r25, 0x0337
    167e:	64 e6       	ldi	r22, 0x64	; 100
    1680:	70 e0       	ldi	r23, 0x00	; 0
    1682:	0e 94 fe 15 	call	0x2bfc	; 0x2bfc <__divmodhi4>
    1686:	89 2b       	or	r24, r25
    1688:	71 f4       	brne	.+28     	; 0x16a6 <key_deal+0x2f0>
    168a:	80 91 36 03 	lds	r24, 0x0336
    168e:	90 91 37 03 	lds	r25, 0x0337
    1692:	60 e9       	ldi	r22, 0x90	; 144
    1694:	71 e0       	ldi	r23, 0x01	; 1
    1696:	0e 94 fe 15 	call	0x2bfc	; 0x2bfc <__divmodhi4>
    169a:	89 2b       	or	r24, r25
    169c:	21 f0       	breq	.+8      	; 0x16a6 <key_deal+0x2f0>
    169e:	a4 c0       	rjmp	.+328    	; 0x17e8 <key_deal+0x432>
						Day=30;
    16a0:	8e e1       	ldi	r24, 0x1E	; 30
    16a2:	80 93 39 03 	sts	0x0339, r24
					if((Month==2)&&((leapYear_Sign==1)&&(Day==1)))
    16a6:	80 91 38 03 	lds	r24, 0x0338
    16aa:	82 30       	cpi	r24, 0x02	; 2
    16ac:	19 f5       	brne	.+70     	; 0x16f4 <key_deal+0x33e>
    16ae:	80 91 36 03 	lds	r24, 0x0336
    16b2:	90 91 37 03 	lds	r25, 0x0337
    16b6:	83 70       	andi	r24, 0x03	; 3
    16b8:	90 70       	andi	r25, 0x00	; 0
    16ba:	89 2b       	or	r24, r25
    16bc:	51 f4       	brne	.+20     	; 0x16d2 <key_deal+0x31c>
    16be:	80 91 36 03 	lds	r24, 0x0336
    16c2:	90 91 37 03 	lds	r25, 0x0337
    16c6:	64 e6       	ldi	r22, 0x64	; 100
    16c8:	70 e0       	ldi	r23, 0x00	; 0
    16ca:	0e 94 fe 15 	call	0x2bfc	; 0x2bfc <__divmodhi4>
    16ce:	89 2b       	or	r24, r25
    16d0:	51 f4       	brne	.+20     	; 0x16e6 <key_deal+0x330>
    16d2:	80 91 36 03 	lds	r24, 0x0336
    16d6:	90 91 37 03 	lds	r25, 0x0337
    16da:	60 e9       	ldi	r22, 0x90	; 144
    16dc:	71 e0       	ldi	r23, 0x01	; 1
    16de:	0e 94 fe 15 	call	0x2bfc	; 0x2bfc <__divmodhi4>
    16e2:	89 2b       	or	r24, r25
    16e4:	39 f4       	brne	.+14     	; 0x16f4 <key_deal+0x33e>
    16e6:	80 91 39 03 	lds	r24, 0x0339
    16ea:	81 30       	cpi	r24, 0x01	; 1
    16ec:	19 f4       	brne	.+6      	; 0x16f4 <key_deal+0x33e>
						Day=29;
    16ee:	8d e1       	ldi	r24, 0x1D	; 29
    16f0:	80 93 39 03 	sts	0x0339, r24
					if(((Month==1)||(Month==3)||(Month==5)||(Month==7)||(Month==8)||(Month==10)||(Month==12))&&(Day==1))
    16f4:	80 91 38 03 	lds	r24, 0x0338
    16f8:	81 30       	cpi	r24, 0x01	; 1
    16fa:	c1 f0       	breq	.+48     	; 0x172c <key_deal+0x376>
    16fc:	80 91 38 03 	lds	r24, 0x0338
    1700:	83 30       	cpi	r24, 0x03	; 3
    1702:	a1 f0       	breq	.+40     	; 0x172c <key_deal+0x376>
    1704:	80 91 38 03 	lds	r24, 0x0338
    1708:	85 30       	cpi	r24, 0x05	; 5
    170a:	81 f0       	breq	.+32     	; 0x172c <key_deal+0x376>
    170c:	80 91 38 03 	lds	r24, 0x0338
    1710:	87 30       	cpi	r24, 0x07	; 7
    1712:	61 f0       	breq	.+24     	; 0x172c <key_deal+0x376>
    1714:	80 91 38 03 	lds	r24, 0x0338
    1718:	88 30       	cpi	r24, 0x08	; 8
    171a:	41 f0       	breq	.+16     	; 0x172c <key_deal+0x376>
    171c:	80 91 38 03 	lds	r24, 0x0338
    1720:	8a 30       	cpi	r24, 0x0A	; 10
    1722:	21 f0       	breq	.+8      	; 0x172c <key_deal+0x376>
    1724:	80 91 38 03 	lds	r24, 0x0338
    1728:	8c 30       	cpi	r24, 0x0C	; 12
    172a:	39 f4       	brne	.+14     	; 0x173a <key_deal+0x384>
    172c:	80 91 39 03 	lds	r24, 0x0339
    1730:	81 30       	cpi	r24, 0x01	; 1
    1732:	19 f4       	brne	.+6      	; 0x173a <key_deal+0x384>
						Day=32;
    1734:	80 e2       	ldi	r24, 0x20	; 32
    1736:	80 93 39 03 	sts	0x0339, r24
					if(((Month==4)||(Month==6)||(Month==9)||(Month==11))&&(Day==1))
    173a:	80 91 38 03 	lds	r24, 0x0338
    173e:	84 30       	cpi	r24, 0x04	; 4
    1740:	61 f0       	breq	.+24     	; 0x175a <key_deal+0x3a4>
    1742:	80 91 38 03 	lds	r24, 0x0338
    1746:	86 30       	cpi	r24, 0x06	; 6
    1748:	41 f0       	breq	.+16     	; 0x175a <key_deal+0x3a4>
    174a:	80 91 38 03 	lds	r24, 0x0338
    174e:	89 30       	cpi	r24, 0x09	; 9
    1750:	21 f0       	breq	.+8      	; 0x175a <key_deal+0x3a4>
    1752:	80 91 38 03 	lds	r24, 0x0338
    1756:	8b 30       	cpi	r24, 0x0B	; 11
    1758:	39 f4       	brne	.+14     	; 0x1768 <key_deal+0x3b2>
    175a:	80 91 39 03 	lds	r24, 0x0339
    175e:	81 30       	cpi	r24, 0x01	; 1
    1760:	19 f4       	brne	.+6      	; 0x1768 <key_deal+0x3b2>
						Day=31;
    1762:	8f e1       	ldi	r24, 0x1F	; 31
    1764:	80 93 39 03 	sts	0x0339, r24
					Day--;
    1768:	80 91 39 03 	lds	r24, 0x0339
    176c:	81 50       	subi	r24, 0x01	; 1
    176e:	80 93 39 03 	sts	0x0339, r24
    1772:	2e c0       	rjmp	.+92     	; 0x17d0 <key_deal+0x41a>
				}
				else if(Setmodebit==5){
    1774:	80 91 3a 03 	lds	r24, 0x033A
    1778:	85 30       	cpi	r24, 0x05	; 5
    177a:	69 f4       	brne	.+26     	; 0x1796 <key_deal+0x3e0>
					if(Month==1)
    177c:	80 91 38 03 	lds	r24, 0x0338
    1780:	81 30       	cpi	r24, 0x01	; 1
    1782:	19 f4       	brne	.+6      	; 0x178a <key_deal+0x3d4>
						Month=13;
    1784:	8d e0       	ldi	r24, 0x0D	; 13
    1786:	80 93 38 03 	sts	0x0338, r24
					Month--;
    178a:	80 91 38 03 	lds	r24, 0x0338
    178e:	81 50       	subi	r24, 0x01	; 1
    1790:	80 93 38 03 	sts	0x0338, r24
    1794:	1d c0       	rjmp	.+58     	; 0x17d0 <key_deal+0x41a>
				}
				else{
					if(Year==1900)
    1796:	80 91 36 03 	lds	r24, 0x0336
    179a:	90 91 37 03 	lds	r25, 0x0337
    179e:	8c 56       	subi	r24, 0x6C	; 108
    17a0:	97 40       	sbci	r25, 0x07	; 7
    17a2:	31 f4       	brne	.+12     	; 0x17b0 <key_deal+0x3fa>
						Year=2099;
    17a4:	83 e3       	ldi	r24, 0x33	; 51
    17a6:	98 e0       	ldi	r25, 0x08	; 8
    17a8:	90 93 37 03 	sts	0x0337, r25
    17ac:	80 93 36 03 	sts	0x0336, r24
					Year--;
    17b0:	80 91 36 03 	lds	r24, 0x0336
    17b4:	90 91 37 03 	lds	r25, 0x0337
    17b8:	01 97       	sbiw	r24, 0x01	; 1
    17ba:	90 93 37 03 	sts	0x0337, r25
    17be:	80 93 36 03 	sts	0x0336, r24
    17c2:	06 c0       	rjmp	.+12     	; 0x17d0 <key_deal+0x41a>
				}
			}
			else{
				cls();
    17c4:	0e 94 bb 0f 	call	0x1f76	; 0x1f76 <cls>
				Setmodebit=0;
    17c8:	10 92 3a 03 	sts	0x033A, r1
				Timechange=FALSE;
    17cc:	10 92 32 03 	sts	0x0332, r1
			}
			DisplayTime=TRUE;
    17d0:	81 e0       	ldi	r24, 0x01	; 1
    17d2:	80 93 9f 00 	sts	0x009F, r24
			DisplayYear=TRUE;
    17d6:	80 93 a0 00 	sts	0x00A0, r24
    17da:	08 95       	ret
					Hour++;
					if(Hour==24)
						Hour=0;
				}
				else if(Setmodebit==4){
					if((Month==2)&&((leapYear_Sign==0)&&(Day>=29)))
    17dc:	80 91 39 03 	lds	r24, 0x0339
    17e0:	8d 31       	cpi	r24, 0x1D	; 29
    17e2:	0c f0       	brlt	.+2      	; 0x17e6 <key_deal+0x430>
    17e4:	74 ce       	rjmp	.-792    	; 0x14ce <key_deal+0x118>
    17e6:	75 ce       	rjmp	.-790    	; 0x14d2 <key_deal+0x11c>
					Hour--;
					if(Hour<0)
						Hour=23;
				}
				else if(Setmodebit==4){					
					if((Month==2)&&((leapYear_Sign==0)&&(Day==1)))
    17e8:	80 91 39 03 	lds	r24, 0x0339
    17ec:	81 30       	cpi	r24, 0x01	; 1
    17ee:	09 f0       	breq	.+2      	; 0x17f2 <key_deal+0x43c>
    17f0:	5a cf       	rjmp	.-332    	; 0x16a6 <key_deal+0x2f0>
    17f2:	56 cf       	rjmp	.-340    	; 0x16a0 <key_deal+0x2ea>
    17f4:	08 95       	ret

000017f6 <DiaplaySetTime>:
		}
	}
}
void DiaplaySetTime(void)
{
	if(Timechange==FALSE) return;
    17f6:	80 91 32 03 	lds	r24, 0x0332
    17fa:	88 23       	and	r24, r24
    17fc:	b9 f1       	breq	.+110    	; 0x186c <DiaplaySetTime+0x76>
	switch(Setmodebit){
    17fe:	80 91 3a 03 	lds	r24, 0x033A
    1802:	83 30       	cpi	r24, 0x03	; 3
    1804:	c1 f0       	breq	.+48     	; 0x1836 <DiaplaySetTime+0x40>
    1806:	84 30       	cpi	r24, 0x04	; 4
    1808:	28 f4       	brcc	.+10     	; 0x1814 <DiaplaySetTime+0x1e>
    180a:	81 30       	cpi	r24, 0x01	; 1
    180c:	51 f0       	breq	.+20     	; 0x1822 <DiaplaySetTime+0x2c>
    180e:	82 30       	cpi	r24, 0x02	; 2
    1810:	39 f5       	brne	.+78     	; 0x1860 <DiaplaySetTime+0x6a>
    1812:	0c c0       	rjmp	.+24     	; 0x182c <DiaplaySetTime+0x36>
    1814:	85 30       	cpi	r24, 0x05	; 5
    1816:	c9 f0       	breq	.+50     	; 0x184a <DiaplaySetTime+0x54>
    1818:	85 30       	cpi	r24, 0x05	; 5
    181a:	90 f0       	brcs	.+36     	; 0x1840 <DiaplaySetTime+0x4a>
    181c:	86 30       	cpi	r24, 0x06	; 6
    181e:	01 f5       	brne	.+64     	; 0x1860 <DiaplaySetTime+0x6a>
    1820:	19 c0       	rjmp	.+50     	; 0x1854 <DiaplaySetTime+0x5e>
		case 1: 	SetTime[10]=('秒'&0xff00)>>8;
    1822:	83 ec       	ldi	r24, 0xC3	; 195
    1824:	80 93 9c 00 	sts	0x009C, r24
				SetTime[11]=('秒'&0x00ff);
    1828:	8b ee       	ldi	r24, 0xEB	; 235
    182a:	18 c0       	rjmp	.+48     	; 0x185c <DiaplaySetTime+0x66>
				break;
		case 2:	SetTime[10]=('分'&0xff00)>>8;
    182c:	87 eb       	ldi	r24, 0xB7	; 183
    182e:	80 93 9c 00 	sts	0x009C, r24
				SetTime[11]=('分'&0x00ff);
    1832:	86 ed       	ldi	r24, 0xD6	; 214
    1834:	13 c0       	rjmp	.+38     	; 0x185c <DiaplaySetTime+0x66>
				break;
		case 3:	SetTime[10]=('时'&0xff00)>>8;
    1836:	8a ec       	ldi	r24, 0xCA	; 202
    1838:	80 93 9c 00 	sts	0x009C, r24
				SetTime[11]=('时'&0x00ff);
    183c:	81 eb       	ldi	r24, 0xB1	; 177
    183e:	0e c0       	rjmp	.+28     	; 0x185c <DiaplaySetTime+0x66>
				break;			
		case 4:	SetTime[10]=('日'&0xff00)>>8;
    1840:	88 ec       	ldi	r24, 0xC8	; 200
    1842:	80 93 9c 00 	sts	0x009C, r24
				SetTime[11]=('日'&0x00ff);
    1846:	85 ed       	ldi	r24, 0xD5	; 213
    1848:	09 c0       	rjmp	.+18     	; 0x185c <DiaplaySetTime+0x66>
				break;
		case 5:	SetTime[10]=('月'&0xff00)>>8;
    184a:	84 ed       	ldi	r24, 0xD4	; 212
    184c:	80 93 9c 00 	sts	0x009C, r24
				SetTime[11]=('月'&0x00ff);
    1850:	82 ec       	ldi	r24, 0xC2	; 194
    1852:	04 c0       	rjmp	.+8      	; 0x185c <DiaplaySetTime+0x66>
				break;
		case 6:	SetTime[10]=('年'&0xff00)>>8;
    1854:	84 ec       	ldi	r24, 0xC4	; 196
    1856:	80 93 9c 00 	sts	0x009C, r24
				SetTime[11]=('年'&0x00ff);
    185a:	8a ee       	ldi	r24, 0xEA	; 234
    185c:	80 93 9d 00 	sts	0x009D, r24
				break;
		default:	break;
	}
	dprintf(0,1,SetTime);	
    1860:	80 e0       	ldi	r24, 0x00	; 0
    1862:	61 e0       	ldi	r22, 0x01	; 1
    1864:	42 e9       	ldi	r20, 0x92	; 146
    1866:	50 e0       	ldi	r21, 0x00	; 0
    1868:	0e 94 03 10 	call	0x2006	; 0x2006 <dprintf>
    186c:	08 95       	ret

0000186e <GetYinLiNian>:
				break;
		default:break;
		}
}
void GetYinLiNian(void)
{
    186e:	df 93       	push	r29
    1870:	cf 93       	push	r28
    1872:	00 d0       	rcall	.+0      	; 0x1874 <GetYinLiNian+0x6>
    1874:	00 d0       	rcall	.+0      	; 0x1876 <GetYinLiNian+0x8>
    1876:	cd b7       	in	r28, 0x3d	; 61
    1878:	de b7       	in	r29, 0x3e	; 62
	unsigned char NLyear[4];
	GetChinaCalendar(Year,Month,Day,NLyear);  //NLyear={20,06,12,21}
    187a:	80 91 36 03 	lds	r24, 0x0336
    187e:	90 91 37 03 	lds	r25, 0x0337
    1882:	60 91 38 03 	lds	r22, 0x0338
    1886:	40 91 39 03 	lds	r20, 0x0339
    188a:	9e 01       	movw	r18, r28
    188c:	2f 5f       	subi	r18, 0xFF	; 255
    188e:	3f 4f       	sbci	r19, 0xFF	; 255
    1890:	0e 94 b7 12 	call	0x256e	; 0x256e <GetChinaCalendar>
	NYRyin[0]=NLyear[0]/10+'0';
    1894:	29 81       	ldd	r18, Y+1	; 0x01
    1896:	82 2f       	mov	r24, r18
    1898:	6a e0       	ldi	r22, 0x0A	; 10
    189a:	0e 94 d1 15 	call	0x2ba2	; 0x2ba2 <__udivmodqi4>
    189e:	80 5d       	subi	r24, 0xD0	; 208
    18a0:	80 93 76 00 	sts	0x0076, r24
	NYRyin[1]=NLyear[0]%10+'0';
    18a4:	82 2f       	mov	r24, r18
    18a6:	0e 94 d1 15 	call	0x2ba2	; 0x2ba2 <__udivmodqi4>
    18aa:	90 5d       	subi	r25, 0xD0	; 208
    18ac:	90 93 77 00 	sts	0x0077, r25
	NYRyin[2]=NLyear[1]/10+'0';
    18b0:	2a 81       	ldd	r18, Y+2	; 0x02
    18b2:	82 2f       	mov	r24, r18
    18b4:	0e 94 d1 15 	call	0x2ba2	; 0x2ba2 <__udivmodqi4>
    18b8:	80 5d       	subi	r24, 0xD0	; 208
    18ba:	80 93 78 00 	sts	0x0078, r24
	NYRyin[3]=NLyear[1]%10+'0';
    18be:	82 2f       	mov	r24, r18
    18c0:	0e 94 d1 15 	call	0x2ba2	; 0x2ba2 <__udivmodqi4>
    18c4:	90 5d       	subi	r25, 0xD0	; 208
    18c6:	90 93 79 00 	sts	0x0079, r25
	NYRyin[6]=NLyear[2]/10+'0';
    18ca:	2b 81       	ldd	r18, Y+3	; 0x03
    18cc:	82 2f       	mov	r24, r18
    18ce:	0e 94 d1 15 	call	0x2ba2	; 0x2ba2 <__udivmodqi4>
    18d2:	80 5d       	subi	r24, 0xD0	; 208
    18d4:	80 93 7c 00 	sts	0x007C, r24
	NYRyin[7]=NLyear[2]%10+'0';
    18d8:	82 2f       	mov	r24, r18
    18da:	0e 94 d1 15 	call	0x2ba2	; 0x2ba2 <__udivmodqi4>
    18de:	90 5d       	subi	r25, 0xD0	; 208
    18e0:	90 93 7d 00 	sts	0x007D, r25
	NYRyin[10]=NLyear[3]/10+'0';
    18e4:	2c 81       	ldd	r18, Y+4	; 0x04
    18e6:	82 2f       	mov	r24, r18
    18e8:	0e 94 d1 15 	call	0x2ba2	; 0x2ba2 <__udivmodqi4>
    18ec:	80 5d       	subi	r24, 0xD0	; 208
    18ee:	80 93 80 00 	sts	0x0080, r24
	NYRyin[11]=NLyear[3]%10+'0';
    18f2:	82 2f       	mov	r24, r18
    18f4:	0e 94 d1 15 	call	0x2ba2	; 0x2ba2 <__udivmodqi4>
    18f8:	90 5d       	subi	r25, 0xD0	; 208
    18fa:	90 93 81 00 	sts	0x0081, r25
}
    18fe:	0f 90       	pop	r0
    1900:	0f 90       	pop	r0
    1902:	0f 90       	pop	r0
    1904:	0f 90       	pop	r0
    1906:	cf 91       	pop	r28
    1908:	df 91       	pop	r29
    190a:	08 95       	ret

0000190c <main>:
	}
	dprintf(0,1,SetTime);	
			
}
int main(void) // 测试用
{
    190c:	af 92       	push	r10
    190e:	bf 92       	push	r11
    1910:	cf 92       	push	r12
    1912:	df 92       	push	r13
    1914:	ff 92       	push	r15
    1916:	0f 93       	push	r16
    1918:	1f 93       	push	r17
    191a:	df 93       	push	r29
    191c:	cf 93       	push	r28
    191e:	cd b7       	in	r28, 0x3d	; 61
    1920:	de b7       	in	r29, 0x3e	; 62
    1922:	63 97       	sbiw	r28, 0x13	; 19
    1924:	0f b6       	in	r0, 0x3f	; 63
    1926:	f8 94       	cli
    1928:	de bf       	out	0x3e, r29	; 62
    192a:	0f be       	out	0x3f, r0	; 63
    192c:	cd bf       	out	0x3d, r28	; 61
	
	unsigned char data[3];
	unsigned char JQdate;	
	char str[15];
	
	DDRC=0X3F;
    192e:	8f e3       	ldi	r24, 0x3F	; 63
    1930:	84 bb       	out	0x14, r24	; 20
    	DDRA = 0xFF;
    1932:	8f ef       	ldi	r24, 0xFF	; 255
    1934:	8a bb       	out	0x1a, r24	; 26
    	PORTA = 0xff;
    1936:	8b bb       	out	0x1b, r24	; 27
	
	Year=(NYRyang[0]-'0')*1000+(NYRyang[1]-'0')*100+(NYRyang[2]-'0')*10+(NYRyang[3]-'0');
    1938:	20 91 61 00 	lds	r18, 0x0061
    193c:	e0 91 60 00 	lds	r30, 0x0060
    1940:	60 91 62 00 	lds	r22, 0x0062
    1944:	80 91 63 00 	lds	r24, 0x0063
    1948:	90 e0       	ldi	r25, 0x00	; 0
    194a:	80 5d       	subi	r24, 0xD0	; 208
    194c:	94 41       	sbci	r25, 0x14	; 20
    194e:	44 e6       	ldi	r20, 0x64	; 100
    1950:	24 9f       	mul	r18, r20
    1952:	90 01       	movw	r18, r0
    1954:	11 24       	eor	r1, r1
    1956:	82 0f       	add	r24, r18
    1958:	93 1f       	adc	r25, r19
    195a:	4a e0       	ldi	r20, 0x0A	; 10
    195c:	64 9f       	mul	r22, r20
    195e:	b0 01       	movw	r22, r0
    1960:	11 24       	eor	r1, r1
    1962:	86 0f       	add	r24, r22
    1964:	97 1f       	adc	r25, r23
    1966:	f0 e0       	ldi	r31, 0x00	; 0
    1968:	f0 97       	sbiw	r30, 0x30	; 48
    196a:	28 ee       	ldi	r18, 0xE8	; 232
    196c:	33 e0       	ldi	r19, 0x03	; 3
    196e:	b9 01       	movw	r22, r18
    1970:	e6 9f       	mul	r30, r22
    1972:	90 01       	movw	r18, r0
    1974:	e7 9f       	mul	r30, r23
    1976:	30 0d       	add	r19, r0
    1978:	f6 9f       	mul	r31, r22
    197a:	30 0d       	add	r19, r0
    197c:	11 24       	eor	r1, r1
    197e:	82 0f       	add	r24, r18
    1980:	93 1f       	adc	r25, r19
    1982:	90 93 37 03 	sts	0x0337, r25
    1986:	80 93 36 03 	sts	0x0336, r24
	Month=(NYRyang[6]-'0')*10+(NYRyang[7]-'0');
    198a:	80 91 66 00 	lds	r24, 0x0066
    198e:	20 91 67 00 	lds	r18, 0x0067
    1992:	20 51       	subi	r18, 0x10	; 16
    1994:	84 9f       	mul	r24, r20
    1996:	c0 01       	movw	r24, r0
    1998:	11 24       	eor	r1, r1
    199a:	28 0f       	add	r18, r24
    199c:	20 93 38 03 	sts	0x0338, r18
	Day=(NYRyang[10]-'0')*10+(NYRyang[11]-'0');	
    19a0:	80 91 6a 00 	lds	r24, 0x006A
    19a4:	20 91 6b 00 	lds	r18, 0x006B
    19a8:	20 51       	subi	r18, 0x10	; 16
    19aa:	84 9f       	mul	r24, r20
    19ac:	c0 01       	movw	r24, r0
    19ae:	11 24       	eor	r1, r1
    19b0:	28 0f       	add	r18, r24
    19b2:	20 93 39 03 	sts	0x0339, r18
    	shortdelay(1200);
    19b6:	80 eb       	ldi	r24, 0xB0	; 176
    19b8:	94 e0       	ldi	r25, 0x04	; 4
    19ba:	0e 94 bf 10 	call	0x217e	; 0x217e <shortdelay>
    	fnLCMInit();
    19be:	0e 94 e0 0f 	call	0x1fc0	; 0x1fc0 <fnLCMInit>
    	cls();
    19c2:	0e 94 bb 0f 	call	0x1f76	; 0x1f76 <cls>
    	cursor(0,0);
    19c6:	80 e0       	ldi	r24, 0x00	; 0
    19c8:	60 e0       	ldi	r22, 0x00	; 0
    19ca:	0e 94 b6 0f 	call	0x1f6c	; 0x1f6c <cursor>
	NYRyin[10]=NLyear[3]/10+'0';
	NYRyin[11]=NLyear[3]%10+'0';
}
void time2_RTCinit(void)
{
	TCCR2=0X07;
    19ce:	87 e0       	ldi	r24, 0x07	; 7
    19d0:	85 bd       	out	0x25, r24	; 37
	ASSR=0X08;
    19d2:	88 e0       	ldi	r24, 0x08	; 8
    19d4:	82 bd       	out	0x22, r24	; 34
	TCNT2=0Xdf;
    19d6:	8f ed       	ldi	r24, 0xDF	; 223
    19d8:	84 bd       	out	0x24, r24	; 36
	while(ASSR&0X05);
    19da:	82 b5       	in	r24, 0x22	; 34
    19dc:	85 70       	andi	r24, 0x05	; 5
    19de:	e9 f7       	brne	.-6      	; 0x19da <main+0xce>
	TIMSK=0X40;
    19e0:	80 e4       	ldi	r24, 0x40	; 64
    19e2:	89 bf       	out	0x39, r24	; 57
	asm("sei");
    19e4:	78 94       	sei
			Minute++;			
			if(Minute==60){
				Minute=0;
				Hour++;
				if(Hour>=24){
					DisplayYear=TRUE;
    19e6:	ff 24       	eor	r15, r15
    19e8:	f3 94       	inc	r15
			NYRyang[6]=Month/10+'0';
			NYRyang[7]=Month%10+'0';
			NYRyang[10]=Day/10+'0';
			NYRyang[11]=Day%10+'0';
			GetYinLiNian();
			GetChinaCalendarStr(Year,Month,Day,str);      //str   ={"丙戌年腊月廿一"}
    19ea:	8e 01       	movw	r16, r28
    19ec:	0b 5f       	subi	r16, 0xFB	; 251
    19ee:	1f 4f       	sbci	r17, 0xFF	; 255
			GetWeek(Year,Month,Day,&week);   //week  =4
    19f0:	6e 01       	movw	r12, r28
    19f2:	08 94       	sec
    19f4:	c1 1c       	adc	r12, r1
    19f6:	d1 1c       	adc	r13, r1
			getweekday(week);
			GetJieQi(Year,Month,Day,&data[1]); //JQdate=4 意思为本月的4号是个节气
    19f8:	83 e0       	ldi	r24, 0x03	; 3
    19fa:	a8 2e       	mov	r10, r24
    19fc:	b1 2c       	mov	r11, r1
    19fe:	ac 0e       	add	r10, r28
    1a00:	bd 1e       	adc	r11, r29
    	cls();
    	cursor(0,0);
	time2_RTCinit();	
	
	while(1){
		key_deal();
    1a02:	0e 94 db 09 	call	0x13b6	; 0x13b6 <key_deal>
		DiaplaySetTime();
    1a06:	0e 94 fb 0b 	call	0x17f6	; 0x17f6 <DiaplaySetTime>
//		_delay_ms(220);
//		Hour+=23;
//		Second=60;
//		Minute=59;
		//Second+=60;
		if(Second==60){
    1a0a:	80 91 34 03 	lds	r24, 0x0334
    1a0e:	8c 33       	cpi	r24, 0x3C	; 60
    1a10:	09 f0       	breq	.+2      	; 0x1a14 <main+0x108>
    1a12:	ae c0       	rjmp	.+348    	; 0x1b70 <main+0x264>
			Second=0;
    1a14:	10 92 34 03 	sts	0x0334, r1
			Minute++;			
    1a18:	80 91 35 03 	lds	r24, 0x0335
    1a1c:	8f 5f       	subi	r24, 0xFF	; 255
    1a1e:	80 93 35 03 	sts	0x0335, r24
			if(Minute==60){
    1a22:	80 91 35 03 	lds	r24, 0x0335
    1a26:	8c 33       	cpi	r24, 0x3C	; 60
    1a28:	09 f0       	breq	.+2      	; 0x1a2c <main+0x120>
    1a2a:	a2 c0       	rjmp	.+324    	; 0x1b70 <main+0x264>
				Minute=0;
    1a2c:	10 92 35 03 	sts	0x0335, r1
				Hour++;
    1a30:	80 91 a1 00 	lds	r24, 0x00A1
    1a34:	8f 5f       	subi	r24, 0xFF	; 255
    1a36:	80 93 a1 00 	sts	0x00A1, r24
				if(Hour>=24){
    1a3a:	80 91 a1 00 	lds	r24, 0x00A1
    1a3e:	88 31       	cpi	r24, 0x18	; 24
    1a40:	0c f4       	brge	.+2      	; 0x1a44 <main+0x138>
    1a42:	96 c0       	rjmp	.+300    	; 0x1b70 <main+0x264>
					DisplayYear=TRUE;
    1a44:	f0 92 a0 00 	sts	0x00A0, r15
					Hour=0;
    1a48:	10 92 a1 00 	sts	0x00A1, r1
					if(((Month==2)&&(((leapYear_Sign==0)&&(Day==29))||((leapYear_Sign==1)&&(Day==28))))||
    1a4c:	80 91 38 03 	lds	r24, 0x0338
    1a50:	82 30       	cpi	r24, 0x02	; 2
    1a52:	e9 f5       	brne	.+122    	; 0x1ace <main+0x1c2>
    1a54:	80 91 36 03 	lds	r24, 0x0336
    1a58:	90 91 37 03 	lds	r25, 0x0337
    1a5c:	83 70       	andi	r24, 0x03	; 3
    1a5e:	90 70       	andi	r25, 0x00	; 0
    1a60:	89 2b       	or	r24, r25
    1a62:	51 f4       	brne	.+20     	; 0x1a78 <main+0x16c>
    1a64:	80 91 36 03 	lds	r24, 0x0336
    1a68:	90 91 37 03 	lds	r25, 0x0337
    1a6c:	64 e6       	ldi	r22, 0x64	; 100
    1a6e:	70 e0       	ldi	r23, 0x00	; 0
    1a70:	0e 94 fe 15 	call	0x2bfc	; 0x2bfc <__divmodhi4>
    1a74:	89 2b       	or	r24, r25
    1a76:	59 f4       	brne	.+22     	; 0x1a8e <main+0x182>
    1a78:	80 91 36 03 	lds	r24, 0x0336
    1a7c:	90 91 37 03 	lds	r25, 0x0337
    1a80:	60 e9       	ldi	r22, 0x90	; 144
    1a82:	71 e0       	ldi	r23, 0x01	; 1
    1a84:	0e 94 fe 15 	call	0x2bfc	; 0x2bfc <__divmodhi4>
    1a88:	89 2b       	or	r24, r25
    1a8a:	09 f0       	breq	.+2      	; 0x1a8e <main+0x182>
    1a8c:	5c c1       	rjmp	.+696    	; 0x1d46 <main+0x43a>
    1a8e:	80 91 36 03 	lds	r24, 0x0336
    1a92:	90 91 37 03 	lds	r25, 0x0337
    1a96:	83 70       	andi	r24, 0x03	; 3
    1a98:	90 70       	andi	r25, 0x00	; 0
    1a9a:	89 2b       	or	r24, r25
    1a9c:	51 f4       	brne	.+20     	; 0x1ab2 <main+0x1a6>
    1a9e:	80 91 36 03 	lds	r24, 0x0336
    1aa2:	90 91 37 03 	lds	r25, 0x0337
    1aa6:	64 e6       	ldi	r22, 0x64	; 100
    1aa8:	70 e0       	ldi	r23, 0x00	; 0
    1aaa:	0e 94 fe 15 	call	0x2bfc	; 0x2bfc <__divmodhi4>
    1aae:	89 2b       	or	r24, r25
    1ab0:	51 f4       	brne	.+20     	; 0x1ac6 <main+0x1ba>
    1ab2:	80 91 36 03 	lds	r24, 0x0336
    1ab6:	90 91 37 03 	lds	r25, 0x0337
    1aba:	60 e9       	ldi	r22, 0x90	; 144
    1abc:	71 e0       	ldi	r23, 0x01	; 1
    1abe:	0e 94 fe 15 	call	0x2bfc	; 0x2bfc <__divmodhi4>
    1ac2:	89 2b       	or	r24, r25
    1ac4:	21 f4       	brne	.+8      	; 0x1ace <main+0x1c2>
    1ac6:	80 91 39 03 	lds	r24, 0x0339
    1aca:	8c 31       	cpi	r24, 0x1C	; 28
    1acc:	a1 f1       	breq	.+104    	; 0x1b36 <main+0x22a>
    1ace:	80 91 38 03 	lds	r24, 0x0338
    1ad2:	81 30       	cpi	r24, 0x01	; 1
    1ad4:	c1 f0       	breq	.+48     	; 0x1b06 <main+0x1fa>
    1ad6:	80 91 38 03 	lds	r24, 0x0338
    1ada:	83 30       	cpi	r24, 0x03	; 3
    1adc:	a1 f0       	breq	.+40     	; 0x1b06 <main+0x1fa>
    1ade:	80 91 38 03 	lds	r24, 0x0338
    1ae2:	85 30       	cpi	r24, 0x05	; 5
    1ae4:	81 f0       	breq	.+32     	; 0x1b06 <main+0x1fa>
    1ae6:	80 91 38 03 	lds	r24, 0x0338
    1aea:	87 30       	cpi	r24, 0x07	; 7
    1aec:	61 f0       	breq	.+24     	; 0x1b06 <main+0x1fa>
    1aee:	80 91 38 03 	lds	r24, 0x0338
    1af2:	88 30       	cpi	r24, 0x08	; 8
    1af4:	41 f0       	breq	.+16     	; 0x1b06 <main+0x1fa>
    1af6:	80 91 38 03 	lds	r24, 0x0338
    1afa:	8a 30       	cpi	r24, 0x0A	; 10
    1afc:	21 f0       	breq	.+8      	; 0x1b06 <main+0x1fa>
    1afe:	80 91 38 03 	lds	r24, 0x0338
    1b02:	8c 30       	cpi	r24, 0x0C	; 12
    1b04:	21 f4       	brne	.+8      	; 0x1b0e <main+0x202>
    1b06:	80 91 39 03 	lds	r24, 0x0339
    1b0a:	8f 31       	cpi	r24, 0x1F	; 31
    1b0c:	a1 f0       	breq	.+40     	; 0x1b36 <main+0x22a>
    1b0e:	80 91 38 03 	lds	r24, 0x0338
    1b12:	84 30       	cpi	r24, 0x04	; 4
    1b14:	61 f0       	breq	.+24     	; 0x1b2e <main+0x222>
    1b16:	80 91 38 03 	lds	r24, 0x0338
    1b1a:	86 30       	cpi	r24, 0x06	; 6
    1b1c:	41 f0       	breq	.+16     	; 0x1b2e <main+0x222>
    1b1e:	80 91 38 03 	lds	r24, 0x0338
    1b22:	89 30       	cpi	r24, 0x09	; 9
    1b24:	21 f0       	breq	.+8      	; 0x1b2e <main+0x222>
    1b26:	80 91 38 03 	lds	r24, 0x0338
    1b2a:	8b 30       	cpi	r24, 0x0B	; 11
    1b2c:	e1 f4       	brne	.+56     	; 0x1b66 <main+0x25a>
    1b2e:	80 91 39 03 	lds	r24, 0x0339
    1b32:	8e 31       	cpi	r24, 0x1E	; 30
    1b34:	c1 f4       	brne	.+48     	; 0x1b66 <main+0x25a>
						(((Month==1)||(Month==3)||(Month==5)||(Month==7)||(Month==8)||(Month==10)||(Month==12))&&(Day==31))||
						(((Month==4)||(Month==6)||(Month==9)||(Month==11))&&(Day==30))){
						Day=1;
    1b36:	f0 92 39 03 	sts	0x0339, r15
						if(Month<12)
    1b3a:	80 91 38 03 	lds	r24, 0x0338
    1b3e:	8c 30       	cpi	r24, 0x0C	; 12
    1b40:	34 f4       	brge	.+12     	; 0x1b4e <main+0x242>
							Month++;
    1b42:	80 91 38 03 	lds	r24, 0x0338
    1b46:	8f 5f       	subi	r24, 0xFF	; 255
    1b48:	80 93 38 03 	sts	0x0338, r24
    1b4c:	11 c0       	rjmp	.+34     	; 0x1b70 <main+0x264>
						else{
							Month=1;
    1b4e:	f0 92 38 03 	sts	0x0338, r15
							Year++;
    1b52:	80 91 36 03 	lds	r24, 0x0336
    1b56:	90 91 37 03 	lds	r25, 0x0337
    1b5a:	01 96       	adiw	r24, 0x01	; 1
    1b5c:	90 93 37 03 	sts	0x0337, r25
    1b60:	80 93 36 03 	sts	0x0336, r24
    1b64:	05 c0       	rjmp	.+10     	; 0x1b70 <main+0x264>
						}
					}
					else
						Day++;
    1b66:	80 91 39 03 	lds	r24, 0x0339
    1b6a:	8f 5f       	subi	r24, 0xFF	; 255
    1b6c:	80 93 39 03 	sts	0x0339, r24
				}
			}
			
		}
		if(DisplayTime==TRUE){
    1b70:	80 91 9f 00 	lds	r24, 0x009F
    1b74:	81 30       	cpi	r24, 0x01	; 1
    1b76:	c1 f5       	brne	.+112    	; 0x1be8 <main+0x2dc>
			DisplayTime=FALSE;
    1b78:	10 92 9f 00 	sts	0x009F, r1
			Time[9]=Second%10+'0';
    1b7c:	80 91 34 03 	lds	r24, 0x0334
    1b80:	6a e0       	ldi	r22, 0x0A	; 10
    1b82:	0e 94 dd 15 	call	0x2bba	; 0x2bba <__divmodqi4>
    1b86:	90 5d       	subi	r25, 0xD0	; 208
    1b88:	90 93 8e 00 	sts	0x008E, r25
			Time[8]=Second/10+'0';
    1b8c:	80 91 34 03 	lds	r24, 0x0334
    1b90:	6a e0       	ldi	r22, 0x0A	; 10
    1b92:	0e 94 dd 15 	call	0x2bba	; 0x2bba <__divmodqi4>
    1b96:	80 5d       	subi	r24, 0xD0	; 208
    1b98:	80 93 8d 00 	sts	0x008D, r24
			Time[5]=Minute%10+'0';
    1b9c:	80 91 35 03 	lds	r24, 0x0335
    1ba0:	6a e0       	ldi	r22, 0x0A	; 10
    1ba2:	0e 94 dd 15 	call	0x2bba	; 0x2bba <__divmodqi4>
    1ba6:	90 5d       	subi	r25, 0xD0	; 208
    1ba8:	90 93 8a 00 	sts	0x008A, r25
			Time[4]=Minute/10+'0';
    1bac:	80 91 35 03 	lds	r24, 0x0335
    1bb0:	6a e0       	ldi	r22, 0x0A	; 10
    1bb2:	0e 94 dd 15 	call	0x2bba	; 0x2bba <__divmodqi4>
    1bb6:	80 5d       	subi	r24, 0xD0	; 208
    1bb8:	80 93 89 00 	sts	0x0089, r24
			Time[1]=Hour%10+'0';
    1bbc:	80 91 a1 00 	lds	r24, 0x00A1
    1bc0:	6a e0       	ldi	r22, 0x0A	; 10
    1bc2:	0e 94 dd 15 	call	0x2bba	; 0x2bba <__divmodqi4>
    1bc6:	90 5d       	subi	r25, 0xD0	; 208
    1bc8:	90 93 86 00 	sts	0x0086, r25
			Time[0]=Hour/10+'0';	
    1bcc:	80 91 a1 00 	lds	r24, 0x00A1
    1bd0:	6a e0       	ldi	r22, 0x0A	; 10
    1bd2:	0e 94 dd 15 	call	0x2bba	; 0x2bba <__divmodqi4>
    1bd6:	80 5d       	subi	r24, 0xD0	; 208
    1bd8:	80 93 85 00 	sts	0x0085, r24
			dprintf(0,3,Time);
    1bdc:	80 e0       	ldi	r24, 0x00	; 0
    1bde:	63 e0       	ldi	r22, 0x03	; 3
    1be0:	45 e8       	ldi	r20, 0x85	; 133
    1be2:	50 e0       	ldi	r21, 0x00	; 0
    1be4:	0e 94 03 10 	call	0x2006	; 0x2006 <dprintf>
		}
		if(DisplayYear==TRUE){	
    1be8:	80 91 a0 00 	lds	r24, 0x00A0
    1bec:	81 30       	cpi	r24, 0x01	; 1
    1bee:	09 f0       	breq	.+2      	; 0x1bf2 <main+0x2e6>
    1bf0:	08 cf       	rjmp	.-496    	; 0x1a02 <main+0xf6>
			DisplayYear=FALSE;
    1bf2:	10 92 a0 00 	sts	0x00A0, r1
			NYRyang[0]=Year/1000+'0';
    1bf6:	80 91 36 03 	lds	r24, 0x0336
    1bfa:	90 91 37 03 	lds	r25, 0x0337
    1bfe:	68 ee       	ldi	r22, 0xE8	; 232
    1c00:	73 e0       	ldi	r23, 0x03	; 3
    1c02:	0e 94 fe 15 	call	0x2bfc	; 0x2bfc <__divmodhi4>
    1c06:	60 5d       	subi	r22, 0xD0	; 208
    1c08:	60 93 60 00 	sts	0x0060, r22
			NYRyang[1]=Year%1000/100+'0';
    1c0c:	80 91 36 03 	lds	r24, 0x0336
    1c10:	90 91 37 03 	lds	r25, 0x0337
    1c14:	68 ee       	ldi	r22, 0xE8	; 232
    1c16:	73 e0       	ldi	r23, 0x03	; 3
    1c18:	0e 94 fe 15 	call	0x2bfc	; 0x2bfc <__divmodhi4>
    1c1c:	64 e6       	ldi	r22, 0x64	; 100
    1c1e:	70 e0       	ldi	r23, 0x00	; 0
    1c20:	0e 94 fe 15 	call	0x2bfc	; 0x2bfc <__divmodhi4>
    1c24:	60 5d       	subi	r22, 0xD0	; 208
    1c26:	60 93 61 00 	sts	0x0061, r22
			NYRyang[2]=Year%1000%100/10+'0';
    1c2a:	80 91 36 03 	lds	r24, 0x0336
    1c2e:	90 91 37 03 	lds	r25, 0x0337
    1c32:	68 ee       	ldi	r22, 0xE8	; 232
    1c34:	73 e0       	ldi	r23, 0x03	; 3
    1c36:	0e 94 fe 15 	call	0x2bfc	; 0x2bfc <__divmodhi4>
    1c3a:	64 e6       	ldi	r22, 0x64	; 100
    1c3c:	70 e0       	ldi	r23, 0x00	; 0
    1c3e:	0e 94 fe 15 	call	0x2bfc	; 0x2bfc <__divmodhi4>
    1c42:	6a e0       	ldi	r22, 0x0A	; 10
    1c44:	70 e0       	ldi	r23, 0x00	; 0
    1c46:	0e 94 fe 15 	call	0x2bfc	; 0x2bfc <__divmodhi4>
    1c4a:	60 5d       	subi	r22, 0xD0	; 208
    1c4c:	60 93 62 00 	sts	0x0062, r22
			NYRyang[3]=Year%1000%100%10+'0';
    1c50:	80 91 36 03 	lds	r24, 0x0336
    1c54:	90 91 37 03 	lds	r25, 0x0337
    1c58:	68 ee       	ldi	r22, 0xE8	; 232
    1c5a:	73 e0       	ldi	r23, 0x03	; 3
    1c5c:	0e 94 fe 15 	call	0x2bfc	; 0x2bfc <__divmodhi4>
    1c60:	64 e6       	ldi	r22, 0x64	; 100
    1c62:	70 e0       	ldi	r23, 0x00	; 0
    1c64:	0e 94 fe 15 	call	0x2bfc	; 0x2bfc <__divmodhi4>
    1c68:	6a e0       	ldi	r22, 0x0A	; 10
    1c6a:	70 e0       	ldi	r23, 0x00	; 0
    1c6c:	0e 94 fe 15 	call	0x2bfc	; 0x2bfc <__divmodhi4>
    1c70:	80 5d       	subi	r24, 0xD0	; 208
    1c72:	80 93 63 00 	sts	0x0063, r24
			NYRyang[6]=Month/10+'0';
    1c76:	80 91 38 03 	lds	r24, 0x0338
    1c7a:	6a e0       	ldi	r22, 0x0A	; 10
    1c7c:	0e 94 dd 15 	call	0x2bba	; 0x2bba <__divmodqi4>
    1c80:	80 5d       	subi	r24, 0xD0	; 208
    1c82:	80 93 66 00 	sts	0x0066, r24
			NYRyang[7]=Month%10+'0';
    1c86:	80 91 38 03 	lds	r24, 0x0338
    1c8a:	6a e0       	ldi	r22, 0x0A	; 10
    1c8c:	0e 94 dd 15 	call	0x2bba	; 0x2bba <__divmodqi4>
    1c90:	90 5d       	subi	r25, 0xD0	; 208
    1c92:	90 93 67 00 	sts	0x0067, r25
			NYRyang[10]=Day/10+'0';
    1c96:	80 91 39 03 	lds	r24, 0x0339
    1c9a:	6a e0       	ldi	r22, 0x0A	; 10
    1c9c:	0e 94 dd 15 	call	0x2bba	; 0x2bba <__divmodqi4>
    1ca0:	80 5d       	subi	r24, 0xD0	; 208
    1ca2:	80 93 6a 00 	sts	0x006A, r24
			NYRyang[11]=Day%10+'0';
    1ca6:	80 91 39 03 	lds	r24, 0x0339
    1caa:	6a e0       	ldi	r22, 0x0A	; 10
    1cac:	0e 94 dd 15 	call	0x2bba	; 0x2bba <__divmodqi4>
    1cb0:	90 5d       	subi	r25, 0xD0	; 208
    1cb2:	90 93 6b 00 	sts	0x006B, r25
			GetYinLiNian();
    1cb6:	0e 94 37 0c 	call	0x186e	; 0x186e <GetYinLiNian>
			GetChinaCalendarStr(Year,Month,Day,str);      //str   ={"丙戌年腊月廿一"}
    1cba:	80 91 36 03 	lds	r24, 0x0336
    1cbe:	90 91 37 03 	lds	r25, 0x0337
    1cc2:	60 91 38 03 	lds	r22, 0x0338
    1cc6:	40 91 39 03 	lds	r20, 0x0339
    1cca:	98 01       	movw	r18, r16
    1ccc:	0e 94 f8 13 	call	0x27f0	; 0x27f0 <GetChinaCalendarStr>
			GetWeek(Year,Month,Day,&week);   //week  =4
    1cd0:	80 91 36 03 	lds	r24, 0x0336
    1cd4:	90 91 37 03 	lds	r25, 0x0337
    1cd8:	60 91 38 03 	lds	r22, 0x0338
    1cdc:	40 91 39 03 	lds	r20, 0x0339
    1ce0:	96 01       	movw	r18, r12
    1ce2:	0e 94 b8 13 	call	0x2770	; 0x2770 <GetWeek>
			getweekday(week);
    1ce6:	89 81       	ldd	r24, Y+1	; 0x01
    1ce8:	0e 94 74 09 	call	0x12e8	; 0x12e8 <getweekday>
			GetJieQi(Year,Month,Day,&data[1]); //JQdate=4 意思为本月的4号是个节气
    1cec:	80 91 36 03 	lds	r24, 0x0336
    1cf0:	90 91 37 03 	lds	r25, 0x0337
    1cf4:	60 91 38 03 	lds	r22, 0x0338
    1cf8:	40 91 39 03 	lds	r20, 0x0339
    1cfc:	95 01       	movw	r18, r10
    1cfe:	0e 94 ab 14 	call	0x2956	; 0x2956 <GetJieQi>
			
			dprintf(0,4,NYRyang);
    1d02:	80 e0       	ldi	r24, 0x00	; 0
    1d04:	64 e0       	ldi	r22, 0x04	; 4
    1d06:	40 e6       	ldi	r20, 0x60	; 96
    1d08:	50 e0       	ldi	r21, 0x00	; 0
    1d0a:	0e 94 03 10 	call	0x2006	; 0x2006 <dprintf>
			dprintf(0,5,NYRyin);		
    1d0e:	80 e0       	ldi	r24, 0x00	; 0
    1d10:	65 e0       	ldi	r22, 0x05	; 5
    1d12:	46 e7       	ldi	r20, 0x76	; 118
    1d14:	50 e0       	ldi	r21, 0x00	; 0
    1d16:	0e 94 03 10 	call	0x2006	; 0x2006 <dprintf>
			dprintf(0,6,str);
    1d1a:	80 e0       	ldi	r24, 0x00	; 0
    1d1c:	66 e0       	ldi	r22, 0x06	; 6
    1d1e:	a8 01       	movw	r20, r16
    1d20:	0e 94 03 10 	call	0x2006	; 0x2006 <dprintf>
			GetJieQiStr(Year,Month,Day,str);     //str   ={"离雨水还有11天"}
    1d24:	80 91 36 03 	lds	r24, 0x0336
    1d28:	90 91 37 03 	lds	r25, 0x0337
    1d2c:	60 91 38 03 	lds	r22, 0x0338
    1d30:	40 91 39 03 	lds	r20, 0x0339
    1d34:	98 01       	movw	r18, r16
    1d36:	0e 94 f6 14 	call	0x29ec	; 0x29ec <GetJieQiStr>
			dprintf(0,7,str);
    1d3a:	80 e0       	ldi	r24, 0x00	; 0
    1d3c:	67 e0       	ldi	r22, 0x07	; 7
    1d3e:	a8 01       	movw	r20, r16
    1d40:	0e 94 03 10 	call	0x2006	; 0x2006 <dprintf>
    1d44:	5e ce       	rjmp	.-836    	; 0x1a02 <main+0xf6>
				Minute=0;
				Hour++;
				if(Hour>=24){
					DisplayYear=TRUE;
					Hour=0;
					if(((Month==2)&&(((leapYear_Sign==0)&&(Day==29))||((leapYear_Sign==1)&&(Day==28))))||
    1d46:	80 91 39 03 	lds	r24, 0x0339
    1d4a:	8d 31       	cpi	r24, 0x1D	; 29
    1d4c:	09 f0       	breq	.+2      	; 0x1d50 <main+0x444>
    1d4e:	9f ce       	rjmp	.-706    	; 0x1a8e <main+0x182>
    1d50:	f2 ce       	rjmp	.-540    	; 0x1b36 <main+0x22a>

00001d52 <fnGetRow>:
/* 取当前行数据*/
/************************************************/
unsigned char fnGetRow(void)
{
    return(gCurRow);
}
    1d52:	80 91 3c 03 	lds	r24, 0x033C
    1d56:	08 95       	ret

00001d58 <fnGetCol>:
/* 取当前列数据*/
/************************************************/
unsigned char fnGetCol(void)
{
    return(gCurCol);
}
    1d58:	80 91 3b 03 	lds	r24, 0x033B
    1d5c:	08 95       	ret

00001d5e <RD_LCM>:
/* 读状态*/
/************************************************/
unsigned char RD_LCM(void)
{
    unsigned char temp;
    dir_datap=0x00;
    1d5e:	17 ba       	out	0x17, r1	; 23
    port_conp  |= (1 <<LCM ); //LCM=LCMCW;
    1d60:	da 9a       	sbi	0x1b, 2	; 27
    port_conp &= ~(1 << RD);  //RD=0;
    1d62:	d9 98       	cbi	0x1b, 1	; 27
    NOP();
    1d64:	00 00       	nop
    temp=LCD_IN;
    1d66:	86 b3       	in	r24, 0x16	; 22
    port_conp |= (1<<RD);     //RD=1;
    1d68:	d9 9a       	sbi	0x1b, 1	; 27
    dir_datap = 0xff;
    1d6a:	9f ef       	ldi	r25, 0xFF	; 255
    1d6c:	97 bb       	out	0x17, r25	; 23
    return(temp);
}
    1d6e:	08 95       	ret

00001d70 <RD_DAT>:
/* 读数据*/
/************************************************/
unsigned char RD_DAT(void)
{
    unsigned char temp;
    dir_datap = 0x00;
    1d70:	17 ba       	out	0x17, r1	; 23
    port_conp &= ~(1<<LCM);     //LCM=LCMDW;
    1d72:	da 98       	cbi	0x1b, 2	; 27
    port_conp &= ~(1 << RD);    //RD=0;
    1d74:	d9 98       	cbi	0x1b, 1	; 27
    NOP();
    1d76:	00 00       	nop
    temp = LCD_IN;
    1d78:	86 b3       	in	r24, 0x16	; 22
    port_conp |= (1<<RD);       //RD=1;
    1d7a:	d9 9a       	sbi	0x1b, 1	; 27
    dir_datap = 0xff;
    1d7c:	9f ef       	ldi	r25, 0xFF	; 255
    1d7e:	97 bb       	out	0x17, r25	; 23
    return(temp);
}
    1d80:	08 95       	ret

00001d82 <WR_DAT>:
/************************************************/
/* 写数据*/
/************************************************/
void WR_DAT(unsigned char val)
{
    dir_datap = 0xff;
    1d82:	9f ef       	ldi	r25, 0xFF	; 255
    1d84:	97 bb       	out	0x17, r25	; 23
    port_conp &= ~(1<<LCM);     //LCM=LCMDW;
    1d86:	da 98       	cbi	0x1b, 2	; 27
    LCD_OUT = val;
    1d88:	88 bb       	out	0x18, r24	; 24
    port_conp &= ~(1<<WR);      //WR=0;
    1d8a:	d8 98       	cbi	0x1b, 0	; 27
    NOP();
    1d8c:	00 00       	nop
    NOP();
    1d8e:	00 00       	nop
    port_conp |= (1<<WR);       //WR=1;
    1d90:	d8 9a       	sbi	0x1b, 0	; 27
}
    1d92:	08 95       	ret

00001d94 <WR_CMD>:
/************************************************/
/* 写命令*/
/************************************************/
void WR_CMD(unsigned char val)
{
    dir_datap = 0xff;
    1d94:	9f ef       	ldi	r25, 0xFF	; 255
    1d96:	97 bb       	out	0x17, r25	; 23
    port_conp  |= (1 << LCM);    //LCM=LCMCW;
    1d98:	da 9a       	sbi	0x1b, 2	; 27
    LCD_OUT = val;
    1d9a:	88 bb       	out	0x18, r24	; 24
    port_conp &= ~(1<<WR);       //WR=0;
    1d9c:	d8 98       	cbi	0x1b, 0	; 27
    NOP();
    1d9e:	00 00       	nop
    NOP();
    1da0:	00 00       	nop
    port_conp |= (1<<WR);        //WR=1;
    1da2:	d8 9a       	sbi	0x1b, 0	; 27
}
    1da4:	08 95       	ret

00001da6 <fnSTA01>:
/************************************************/
/* 状态位STA1,STA0判断读写指令和读写数据*/
/* 在读写数据或者写入命令前必须保证均为1 */
/************************************************/
unsigned char fnSTA01(void)
{
    1da6:	9a e0       	ldi	r25, 0x0A	; 10
    port_conp  |= (1 <<LCM ); //LCM=LCMCW;
    port_conp &= ~(1 << RD);  //RD=0;
    NOP();
    temp=LCD_IN;
    port_conp |= (1<<RD);     //RD=1;
    dir_datap = 0xff;
    1da8:	2f ef       	ldi	r18, 0xFF	; 255
/* 读状态*/
/************************************************/
unsigned char RD_LCM(void)
{
    unsigned char temp;
    dir_datap=0x00;
    1daa:	17 ba       	out	0x17, r1	; 23
    port_conp  |= (1 <<LCM ); //LCM=LCMCW;
    1dac:	da 9a       	sbi	0x1b, 2	; 27
    port_conp &= ~(1 << RD);  //RD=0;
    1dae:	d9 98       	cbi	0x1b, 1	; 27
    NOP();
    1db0:	00 00       	nop
    temp=LCD_IN;
    1db2:	86 b3       	in	r24, 0x16	; 22
    port_conp |= (1<<RD);     //RD=1;
    1db4:	d9 9a       	sbi	0x1b, 1	; 27
    dir_datap = 0xff;
    1db6:	27 bb       	out	0x17, r18	; 23
unsigned char fnSTA01(void)
{
    unsigned char i;
    for(i=10;i>0;i--)
    {
        if((RD_LCM() & 0x03) == 0x03) // 读取状态
    1db8:	83 70       	andi	r24, 0x03	; 3
    1dba:	83 30       	cpi	r24, 0x03	; 3
    1dbc:	11 f0       	breq	.+4      	; 0x1dc2 <fnSTA01+0x1c>
/* 在读写数据或者写入命令前必须保证均为1 */
/************************************************/
unsigned char fnSTA01(void)
{
    unsigned char i;
    for(i=10;i>0;i--)
    1dbe:	91 50       	subi	r25, 0x01	; 1
    1dc0:	a1 f7       	brne	.-24     	; 0x1daa <fnSTA01+0x4>
        {
            break;
        }
    }
    return(i); // 若返回零说明错误
}
    1dc2:	89 2f       	mov	r24, r25
    1dc4:	08 95       	ret

00001dc6 <fnSTA2>:
/********************************************/
/* 检查STA2,如果STA2=1 为自动读状态*/
/********************************************/
unsigned char fnSTA2(void)
{
    1dc6:	9a e0       	ldi	r25, 0x0A	; 10
    port_conp  |= (1 <<LCM ); //LCM=LCMCW;
    port_conp &= ~(1 << RD);  //RD=0;
    NOP();
    temp=LCD_IN;
    port_conp |= (1<<RD);     //RD=1;
    dir_datap = 0xff;
    1dc8:	2f ef       	ldi	r18, 0xFF	; 255
/* 读状态*/
/************************************************/
unsigned char RD_LCM(void)
{
    unsigned char temp;
    dir_datap=0x00;
    1dca:	17 ba       	out	0x17, r1	; 23
    port_conp  |= (1 <<LCM ); //LCM=LCMCW;
    1dcc:	da 9a       	sbi	0x1b, 2	; 27
    port_conp &= ~(1 << RD);  //RD=0;
    1dce:	d9 98       	cbi	0x1b, 1	; 27
    NOP();
    1dd0:	00 00       	nop
    temp=LCD_IN;
    1dd2:	86 b3       	in	r24, 0x16	; 22
    port_conp |= (1<<RD);     //RD=1;
    1dd4:	d9 9a       	sbi	0x1b, 1	; 27
    dir_datap = 0xff;
    1dd6:	27 bb       	out	0x17, r18	; 23
unsigned char fnSTA2(void)
{
    unsigned char i;
    for(i=10;i>0;i--)
    {
        if((RD_LCM() & 0x04) == 0x04)
    1dd8:	82 fd       	sbrc	r24, 2
    1dda:	02 c0       	rjmp	.+4      	; 0x1de0 <fnSTA2+0x1a>
/* 检查STA2,如果STA2=1 为自动读状态*/
/********************************************/
unsigned char fnSTA2(void)
{
    unsigned char i;
    for(i=10;i>0;i--)
    1ddc:	91 50       	subi	r25, 0x01	; 1
    1dde:	a9 f7       	brne	.-22     	; 0x1dca <fnSTA2+0x4>
        {
            break;
        }
    }
    return(i); // 若返回零说明错误
}
    1de0:	89 2f       	mov	r24, r25
    1de2:	08 95       	ret

00001de4 <fnSTA3>:
/***********************************************/
/* 状态位STA3 判断STA3 = 1 数据自动写状态*/
/***********************************************/
unsigned char fnSTA3(void)
{
    1de4:	9a e0       	ldi	r25, 0x0A	; 10
    port_conp  |= (1 <<LCM ); //LCM=LCMCW;
    port_conp &= ~(1 << RD);  //RD=0;
    NOP();
    temp=LCD_IN;
    port_conp |= (1<<RD);     //RD=1;
    dir_datap = 0xff;
    1de6:	2f ef       	ldi	r18, 0xFF	; 255
/* 读状态*/
/************************************************/
unsigned char RD_LCM(void)
{
    unsigned char temp;
    dir_datap=0x00;
    1de8:	17 ba       	out	0x17, r1	; 23
    port_conp  |= (1 <<LCM ); //LCM=LCMCW;
    1dea:	da 9a       	sbi	0x1b, 2	; 27
    port_conp &= ~(1 << RD);  //RD=0;
    1dec:	d9 98       	cbi	0x1b, 1	; 27
    NOP();
    1dee:	00 00       	nop
    temp=LCD_IN;
    1df0:	86 b3       	in	r24, 0x16	; 22
    port_conp |= (1<<RD);     //RD=1;
    1df2:	d9 9a       	sbi	0x1b, 1	; 27
    dir_datap = 0xff;
    1df4:	27 bb       	out	0x17, r18	; 23
unsigned char fnSTA3(void)
{
    unsigned char i;
    for(i=10;i>0;i--)
    {
        if((RD_LCM() & 0x08) == 0x08)
    1df6:	83 fd       	sbrc	r24, 3
    1df8:	02 c0       	rjmp	.+4      	; 0x1dfe <fnSTA3+0x1a>
/* 状态位STA3 判断STA3 = 1 数据自动写状态*/
/***********************************************/
unsigned char fnSTA3(void)
{
    unsigned char i;
    for(i=10;i>0;i--)
    1dfa:	91 50       	subi	r25, 0x01	; 1
    1dfc:	a9 f7       	brne	.-22     	; 0x1de8 <fnSTA3+0x4>
        {
            break;
        }
    }
    return(i); // 若返回零说明错误
}
    1dfe:	89 2f       	mov	r24, r25
    1e00:	08 95       	ret

00001e02 <fnSTA6>:
/************************************************/
/* 状态位STA6 判断STA6 =1 屏读/屏拷贝状态*/
/************************************************/
unsigned char fnSTA6(void)
{
    1e02:	9a e0       	ldi	r25, 0x0A	; 10
    port_conp  |= (1 <<LCM ); //LCM=LCMCW;
    port_conp &= ~(1 << RD);  //RD=0;
    NOP();
    temp=LCD_IN;
    port_conp |= (1<<RD);     //RD=1;
    dir_datap = 0xff;
    1e04:	2f ef       	ldi	r18, 0xFF	; 255
/* 读状态*/
/************************************************/
unsigned char RD_LCM(void)
{
    unsigned char temp;
    dir_datap=0x00;
    1e06:	17 ba       	out	0x17, r1	; 23
    port_conp  |= (1 <<LCM ); //LCM=LCMCW;
    1e08:	da 9a       	sbi	0x1b, 2	; 27
    port_conp &= ~(1 << RD);  //RD=0;
    1e0a:	d9 98       	cbi	0x1b, 1	; 27
    NOP();
    1e0c:	00 00       	nop
    temp=LCD_IN;
    1e0e:	86 b3       	in	r24, 0x16	; 22
    port_conp |= (1<<RD);     //RD=1;
    1e10:	d9 9a       	sbi	0x1b, 1	; 27
    dir_datap = 0xff;
    1e12:	27 bb       	out	0x17, r18	; 23
unsigned char fnSTA6(void)
{
    unsigned char i;
    for(i=10;i>0;i--)
    {
        if((RD_LCM() & 0x40) == 0x40)
    1e14:	86 fd       	sbrc	r24, 6
    1e16:	02 c0       	rjmp	.+4      	; 0x1e1c <fnSTA6+0x1a>
/* 状态位STA6 判断STA6 =1 屏读/屏拷贝状态*/
/************************************************/
unsigned char fnSTA6(void)
{
    unsigned char i;
    for(i=10;i>0;i--)
    1e18:	91 50       	subi	r25, 0x01	; 1
    1e1a:	a9 f7       	brne	.-22     	; 0x1e06 <fnSTA6+0x4>
        {
            break;
        }
    }
    return(i); // 若返回零说明错误
}
    1e1c:	89 2f       	mov	r24, r25
    1e1e:	08 95       	ret

00001e20 <fnPR1>:
/************************/
/* 写双参数的指令*/
/************************/
unsigned char fnPR1(unsigned char uCmd,unsigned char uPar1,unsigned char uPar2)
{
    1e20:	ef 92       	push	r14
    1e22:	ff 92       	push	r15
    1e24:	0f 93       	push	r16
    1e26:	1f 93       	push	r17
    1e28:	e8 2e       	mov	r14, r24
    1e2a:	16 2f       	mov	r17, r22
    1e2c:	f4 2e       	mov	r15, r20
    if(fnSTA01() == 0)
    1e2e:	0e 94 d3 0e 	call	0x1da6	; 0x1da6 <fnSTA01>
    1e32:	88 23       	and	r24, r24
    1e34:	11 f4       	brne	.+4      	; 0x1e3a <fnPR1+0x1a>
    1e36:	81 e0       	ldi	r24, 0x01	; 1
    1e38:	23 c0       	rjmp	.+70     	; 0x1e80 <fnPR1+0x60>
/************************************************/
/* 写数据*/
/************************************************/
void WR_DAT(unsigned char val)
{
    dir_datap = 0xff;
    1e3a:	0f ef       	ldi	r16, 0xFF	; 255
    1e3c:	07 bb       	out	0x17, r16	; 23
    port_conp &= ~(1<<LCM);     //LCM=LCMDW;
    1e3e:	da 98       	cbi	0x1b, 2	; 27
    LCD_OUT = val;
    1e40:	18 bb       	out	0x18, r17	; 24
    port_conp &= ~(1<<WR);      //WR=0;
    1e42:	d8 98       	cbi	0x1b, 0	; 27
    NOP();
    1e44:	00 00       	nop
    NOP();
    1e46:	00 00       	nop
    port_conp |= (1<<WR);       //WR=1;
    1e48:	d8 9a       	sbi	0x1b, 0	; 27
    if(fnSTA01() == 0)
    {
        return 1;
    }
    WR_DAT(uPar1);
    if(fnSTA01() == 0)
    1e4a:	0e 94 d3 0e 	call	0x1da6	; 0x1da6 <fnSTA01>
    1e4e:	88 23       	and	r24, r24
    1e50:	11 f4       	brne	.+4      	; 0x1e56 <fnPR1+0x36>
    1e52:	82 e0       	ldi	r24, 0x02	; 2
    1e54:	15 c0       	rjmp	.+42     	; 0x1e80 <fnPR1+0x60>
/************************************************/
/* 写数据*/
/************************************************/
void WR_DAT(unsigned char val)
{
    dir_datap = 0xff;
    1e56:	07 bb       	out	0x17, r16	; 23
    port_conp &= ~(1<<LCM);     //LCM=LCMDW;
    1e58:	da 98       	cbi	0x1b, 2	; 27
    LCD_OUT = val;
    1e5a:	f8 ba       	out	0x18, r15	; 24
    port_conp &= ~(1<<WR);      //WR=0;
    1e5c:	d8 98       	cbi	0x1b, 0	; 27
    NOP();
    1e5e:	00 00       	nop
    NOP();
    1e60:	00 00       	nop
    port_conp |= (1<<WR);       //WR=1;
    1e62:	d8 9a       	sbi	0x1b, 0	; 27
    if(fnSTA01() == 0)
    {
        return 2;
    }
    WR_DAT(uPar2);
    if(fnSTA01() == 0)
    1e64:	0e 94 d3 0e 	call	0x1da6	; 0x1da6 <fnSTA01>
    1e68:	88 23       	and	r24, r24
    1e6a:	11 f4       	brne	.+4      	; 0x1e70 <fnPR1+0x50>
    1e6c:	83 e0       	ldi	r24, 0x03	; 3
    1e6e:	08 c0       	rjmp	.+16     	; 0x1e80 <fnPR1+0x60>
/************************************************/
/* 写命令*/
/************************************************/
void WR_CMD(unsigned char val)
{
    dir_datap = 0xff;
    1e70:	07 bb       	out	0x17, r16	; 23
    port_conp  |= (1 << LCM);    //LCM=LCMCW;
    1e72:	da 9a       	sbi	0x1b, 2	; 27
    LCD_OUT = val;
    1e74:	e8 ba       	out	0x18, r14	; 24
    port_conp &= ~(1<<WR);       //WR=0;
    1e76:	d8 98       	cbi	0x1b, 0	; 27
    NOP();
    1e78:	00 00       	nop
    NOP();
    1e7a:	00 00       	nop
    port_conp |= (1<<WR);        //WR=1;
    1e7c:	d8 9a       	sbi	0x1b, 0	; 27
    1e7e:	80 e0       	ldi	r24, 0x00	; 0
    {
        return 3;
    }
    WR_CMD(uCmd);
    return(0); // 返回0 成功
}
    1e80:	1f 91       	pop	r17
    1e82:	0f 91       	pop	r16
    1e84:	ff 90       	pop	r15
    1e86:	ef 90       	pop	r14
    1e88:	08 95       	ret

00001e8a <fnPR11>:
/************************/
/* 写单参数的指令*/
/************************/
unsigned char fnPR11(unsigned char uCmd,unsigned char uPar1)
{
    1e8a:	ff 92       	push	r15
    1e8c:	0f 93       	push	r16
    1e8e:	1f 93       	push	r17
    1e90:	f8 2e       	mov	r15, r24
    1e92:	16 2f       	mov	r17, r22
    if(fnSTA01() == 0)
    1e94:	0e 94 d3 0e 	call	0x1da6	; 0x1da6 <fnSTA01>
    1e98:	88 23       	and	r24, r24
    1e9a:	11 f4       	brne	.+4      	; 0x1ea0 <fnPR11+0x16>
    1e9c:	81 e0       	ldi	r24, 0x01	; 1
    1e9e:	16 c0       	rjmp	.+44     	; 0x1ecc <fnPR11+0x42>
/************************************************/
/* 写数据*/
/************************************************/
void WR_DAT(unsigned char val)
{
    dir_datap = 0xff;
    1ea0:	0f ef       	ldi	r16, 0xFF	; 255
    1ea2:	07 bb       	out	0x17, r16	; 23
    port_conp &= ~(1<<LCM);     //LCM=LCMDW;
    1ea4:	da 98       	cbi	0x1b, 2	; 27
    LCD_OUT = val;
    1ea6:	18 bb       	out	0x18, r17	; 24
    port_conp &= ~(1<<WR);      //WR=0;
    1ea8:	d8 98       	cbi	0x1b, 0	; 27
    NOP();
    1eaa:	00 00       	nop
    NOP();
    1eac:	00 00       	nop
    port_conp |= (1<<WR);       //WR=1;
    1eae:	d8 9a       	sbi	0x1b, 0	; 27
    if(fnSTA01() == 0)
    {
        return 1;
    }
    WR_DAT(uPar1);
    if(fnSTA01() == 0)
    1eb0:	0e 94 d3 0e 	call	0x1da6	; 0x1da6 <fnSTA01>
    1eb4:	88 23       	and	r24, r24
    1eb6:	11 f4       	brne	.+4      	; 0x1ebc <fnPR11+0x32>
    1eb8:	82 e0       	ldi	r24, 0x02	; 2
    1eba:	08 c0       	rjmp	.+16     	; 0x1ecc <fnPR11+0x42>
/************************************************/
/* 写命令*/
/************************************************/
void WR_CMD(unsigned char val)
{
    dir_datap = 0xff;
    1ebc:	07 bb       	out	0x17, r16	; 23
    port_conp  |= (1 << LCM);    //LCM=LCMCW;
    1ebe:	da 9a       	sbi	0x1b, 2	; 27
    LCD_OUT = val;
    1ec0:	f8 ba       	out	0x18, r15	; 24
    port_conp &= ~(1<<WR);       //WR=0;
    1ec2:	d8 98       	cbi	0x1b, 0	; 27
    NOP();
    1ec4:	00 00       	nop
    NOP();
    1ec6:	00 00       	nop
    port_conp |= (1<<WR);        //WR=1;
    1ec8:	d8 9a       	sbi	0x1b, 0	; 27
    1eca:	80 e0       	ldi	r24, 0x00	; 0
    {
        return 2;
    }
    WR_CMD(uCmd);
    return(0); // 返回0 成功 
}
    1ecc:	1f 91       	pop	r17
    1ece:	0f 91       	pop	r16
    1ed0:	ff 90       	pop	r15
    1ed2:	08 95       	ret

00001ed4 <fnPR12>:
/************************/
/* 写无参数的指令*/
/************************/
unsigned char fnPR12(unsigned char uCmd)
{   
    1ed4:	1f 93       	push	r17
    1ed6:	18 2f       	mov	r17, r24
    if(fnSTA01() == 0)
    1ed8:	0e 94 d3 0e 	call	0x1da6	; 0x1da6 <fnSTA01>
    1edc:	88 23       	and	r24, r24
    1ede:	11 f4       	brne	.+4      	; 0x1ee4 <fnPR12+0x10>
    1ee0:	81 e0       	ldi	r24, 0x01	; 1
    1ee2:	09 c0       	rjmp	.+18     	; 0x1ef6 <fnPR12+0x22>
/************************************************/
/* 写命令*/
/************************************************/
void WR_CMD(unsigned char val)
{
    dir_datap = 0xff;
    1ee4:	8f ef       	ldi	r24, 0xFF	; 255
    1ee6:	87 bb       	out	0x17, r24	; 23
    port_conp  |= (1 << LCM);    //LCM=LCMCW;
    1ee8:	da 9a       	sbi	0x1b, 2	; 27
    LCD_OUT = val;
    1eea:	18 bb       	out	0x18, r17	; 24
    port_conp &= ~(1<<WR);       //WR=0;
    1eec:	d8 98       	cbi	0x1b, 0	; 27
    NOP();
    1eee:	00 00       	nop
    NOP();
    1ef0:	00 00       	nop
    port_conp |= (1<<WR);        //WR=1;
    1ef2:	d8 9a       	sbi	0x1b, 0	; 27
    1ef4:	80 e0       	ldi	r24, 0x00	; 0
    {
        return 1;
    }
    WR_CMD(uCmd);
    return(0); // 返回0 成功
}
    1ef6:	1f 91       	pop	r17
    1ef8:	08 95       	ret

00001efa <fnPR13>:
/************************/
/* 写数据*/
/************************/
unsigned char fnPR13(unsigned char uData)
{
    1efa:	1f 93       	push	r17
    1efc:	18 2f       	mov	r17, r24
    if(fnSTA3() == 0)
    1efe:	0e 94 f2 0e 	call	0x1de4	; 0x1de4 <fnSTA3>
    1f02:	88 23       	and	r24, r24
    1f04:	11 f4       	brne	.+4      	; 0x1f0a <fnPR13+0x10>
    1f06:	81 e0       	ldi	r24, 0x01	; 1
    1f08:	09 c0       	rjmp	.+18     	; 0x1f1c <fnPR13+0x22>
/************************************************/
/* 写数据*/
/************************************************/
void WR_DAT(unsigned char val)
{
    dir_datap = 0xff;
    1f0a:	8f ef       	ldi	r24, 0xFF	; 255
    1f0c:	87 bb       	out	0x17, r24	; 23
    port_conp &= ~(1<<LCM);     //LCM=LCMDW;
    1f0e:	da 98       	cbi	0x1b, 2	; 27
    LCD_OUT = val;
    1f10:	18 bb       	out	0x18, r17	; 24
    port_conp &= ~(1<<WR);      //WR=0;
    1f12:	d8 98       	cbi	0x1b, 0	; 27
    NOP();
    1f14:	00 00       	nop
    NOP();
    1f16:	00 00       	nop
    port_conp |= (1<<WR);       //WR=1;
    1f18:	d8 9a       	sbi	0x1b, 0	; 27
    1f1a:	80 e0       	ldi	r24, 0x00	; 0
    {
        return 1;
    }
    WR_DAT(uData);
    return(0); // 返回0 成功
}
    1f1c:	1f 91       	pop	r17
    1f1e:	08 95       	ret

00001f20 <fnPR2>:
/* 读数据*/
/************************/
unsigned char fnPR2(void)
{
    unsigned char temp;
    if(fnSTA01() == 0)
    1f20:	0e 94 d3 0e 	call	0x1da6	; 0x1da6 <fnSTA01>
    1f24:	88 23       	and	r24, r24
    1f26:	11 f4       	brne	.+4      	; 0x1f2c <fnPR2+0xc>
    1f28:	91 e0       	ldi	r25, 0x01	; 1
    1f2a:	08 c0       	rjmp	.+16     	; 0x1f3c <fnPR2+0x1c>
/* 读数据*/
/************************************************/
unsigned char RD_DAT(void)
{
    unsigned char temp;
    dir_datap = 0x00;
    1f2c:	17 ba       	out	0x17, r1	; 23
    port_conp &= ~(1<<LCM);     //LCM=LCMDW;
    1f2e:	da 98       	cbi	0x1b, 2	; 27
    port_conp &= ~(1 << RD);    //RD=0;
    1f30:	d9 98       	cbi	0x1b, 1	; 27
    NOP();
    1f32:	00 00       	nop
    temp = LCD_IN;
    1f34:	96 b3       	in	r25, 0x16	; 22
    port_conp |= (1<<RD);       //RD=1;
    1f36:	d9 9a       	sbi	0x1b, 1	; 27
    dir_datap = 0xff;
    1f38:	8f ef       	ldi	r24, 0xFF	; 255
    1f3a:	87 bb       	out	0x17, r24	; 23
    {
         return 1; // 获取状态如果状态错
    }
    temp=RD_DAT();
    return(temp); // 返回数据
}
    1f3c:	89 2f       	mov	r24, r25
    1f3e:	08 95       	ret

00001f40 <fnSetPos>:
/************************/
/* 设置当前地址*/
/************************/
void fnSetPos(unsigned char urow, unsigned char ucol)
{
    1f40:	0f 93       	push	r16
    1f42:	1f 93       	push	r17
    1f44:	18 2f       	mov	r17, r24
    1f46:	06 2f       	mov	r16, r22
    unsigned int iPos;
    iPos = (unsigned int)urow * 30 + ucol;
    1f48:	2e e1       	ldi	r18, 0x1E	; 30
    1f4a:	82 9f       	mul	r24, r18
    1f4c:	90 01       	movw	r18, r0
    1f4e:	11 24       	eor	r1, r1
    1f50:	26 0f       	add	r18, r22
    1f52:	31 1d       	adc	r19, r1
    fnPR1(LC_ADD_POS,iPos & 0xFF,iPos / 256);
    1f54:	84 e2       	ldi	r24, 0x24	; 36
    1f56:	62 2f       	mov	r22, r18
    1f58:	43 2f       	mov	r20, r19
    1f5a:	0e 94 10 0f 	call	0x1e20	; 0x1e20 <fnPR1>
    gCurRow = urow;
    1f5e:	10 93 3c 03 	sts	0x033C, r17
    gCurCol = ucol;
    1f62:	00 93 3b 03 	sts	0x033B, r16
}
    1f66:	1f 91       	pop	r17
    1f68:	0f 91       	pop	r16
    1f6a:	08 95       	ret

00001f6c <cursor>:
/**********************/
/* 设置当前显示行列*/
/**********************/
void cursor(unsigned char uRow, unsigned char uCol)
{
    fnSetPos(uRow * 16, uCol);
    1f6c:	82 95       	swap	r24
    1f6e:	80 7f       	andi	r24, 0xF0	; 240
    1f70:	0e 94 a0 0f 	call	0x1f40	; 0x1f40 <fnSetPos>
}
    1f74:	08 95       	ret

00001f76 <cls>:
/*********************/
/* 清屏*/
/*********************/
void cls(void)
{
    1f76:	cf 93       	push	r28
    1f78:	df 93       	push	r29
    unsigned int i;
    fnPR1(LC_ADD_POS,0x00,0x00); // 置地址指针为从零开始
    1f7a:	84 e2       	ldi	r24, 0x24	; 36
    1f7c:	60 e0       	ldi	r22, 0x00	; 0
    1f7e:	40 e0       	ldi	r20, 0x00	; 0
    1f80:	0e 94 10 0f 	call	0x1e20	; 0x1e20 <fnPR1>
    fnPR12(LC_AUT_WR); // 自动写
    1f84:	80 eb       	ldi	r24, 0xB0	; 176
    1f86:	0e 94 6a 0f 	call	0x1ed4	; 0x1ed4 <fnPR12>
    1f8a:	c0 e0       	ldi	r28, 0x00	; 0
    1f8c:	d0 e0       	ldi	r29, 0x00	; 0
    for(i=0;i<240*128/8;i++) // 清一屏
    {
        fnSTA3();
    1f8e:	0e 94 f2 0e 	call	0x1de4	; 0x1de4 <fnSTA3>
        fnPR13(0x0); // 写数据实际使用时请将0x55 改成0x0
    1f92:	80 e0       	ldi	r24, 0x00	; 0
    1f94:	0e 94 7d 0f 	call	0x1efa	; 0x1efa <fnPR13>
void cls(void)
{
    unsigned int i;
    fnPR1(LC_ADD_POS,0x00,0x00); // 置地址指针为从零开始
    fnPR12(LC_AUT_WR); // 自动写
    for(i=0;i<240*128/8;i++) // 清一屏
    1f98:	21 96       	adiw	r28, 0x01	; 1
    1f9a:	8f e0       	ldi	r24, 0x0F	; 15
    1f9c:	c0 30       	cpi	r28, 0x00	; 0
    1f9e:	d8 07       	cpc	r29, r24
    1fa0:	b1 f7       	brne	.-20     	; 0x1f8e <cls+0x18>
    {
        fnSTA3();
        fnPR13(0x0); // 写数据实际使用时请将0x55 改成0x0
    }
    fnPR12(LC_AUT_OVR); // 自动写结束
    1fa2:	82 eb       	ldi	r24, 0xB2	; 178
    1fa4:	0e 94 6a 0f 	call	0x1ed4	; 0x1ed4 <fnPR12>
    fnPR1(LC_ADD_POS,0x00,0x00); // 重置地址指针
    1fa8:	84 e2       	ldi	r24, 0x24	; 36
    1faa:	60 e0       	ldi	r22, 0x00	; 0
    1fac:	40 e0       	ldi	r20, 0x00	; 0
    1fae:	0e 94 10 0f 	call	0x1e20	; 0x1e20 <fnPR1>
    gCurRow = 0; // 置地址指针存储变量
    1fb2:	10 92 3c 03 	sts	0x033C, r1
    gCurCol = 0;
    1fb6:	10 92 3b 03 	sts	0x033B, r1
}
    1fba:	df 91       	pop	r29
    1fbc:	cf 91       	pop	r28
    1fbe:	08 95       	ret

00001fc0 <fnLCMInit>:
/************************/
/* LCM 初始化*/
/************************/
char fnLCMInit(void)
{
    if(fnPR1(LC_TXT_STP,0x00,0x00) != 0) // 文本显示区首地址
    1fc0:	80 e4       	ldi	r24, 0x40	; 64
    1fc2:	60 e0       	ldi	r22, 0x00	; 0
    1fc4:	40 e0       	ldi	r20, 0x00	; 0
    1fc6:	0e 94 10 0f 	call	0x1e20	; 0x1e20 <fnPR1>
    1fca:	88 23       	and	r24, r24
    1fcc:	11 f0       	breq	.+4      	; 0x1fd2 <fnLCMInit+0x12>
    1fce:	8f ef       	ldi	r24, 0xFF	; 255
    1fd0:	08 95       	ret
    {
        return (0xff);
    }
    fnPR1(LC_TXT_WID,0x1E,0x00); // 文本显示区宽度
    1fd2:	81 e4       	ldi	r24, 0x41	; 65
    1fd4:	6e e1       	ldi	r22, 0x1E	; 30
    1fd6:	40 e0       	ldi	r20, 0x00	; 0
    1fd8:	0e 94 10 0f 	call	0x1e20	; 0x1e20 <fnPR1>
    fnPR1(LC_GRH_STP,0x00,0x00); // 图形显示区首地址
    1fdc:	82 e4       	ldi	r24, 0x42	; 66
    1fde:	60 e0       	ldi	r22, 0x00	; 0
    1fe0:	40 e0       	ldi	r20, 0x00	; 0
    1fe2:	0e 94 10 0f 	call	0x1e20	; 0x1e20 <fnPR1>
    fnPR1(LC_GRH_WID,0x1E,0x00); // 图形显示区宽度
    1fe6:	83 e4       	ldi	r24, 0x43	; 67
    1fe8:	6e e1       	ldi	r22, 0x1E	; 30
    1fea:	40 e0       	ldi	r20, 0x00	; 0
    1fec:	0e 94 10 0f 	call	0x1e20	; 0x1e20 <fnPR1>
    fnPR12(LC_CUR_SHP | 0x01); // 光标形状
    1ff0:	81 ea       	ldi	r24, 0xA1	; 161
    1ff2:	0e 94 6a 0f 	call	0x1ed4	; 0x1ed4 <fnPR12>
    fnPR12(LC_MOD_OR); // 显示方式设置
    1ff6:	80 e8       	ldi	r24, 0x80	; 128
    1ff8:	0e 94 6a 0f 	call	0x1ed4	; 0x1ed4 <fnPR12>
    fnPR12(LC_DIS_SW | 0x08); // 显示开关设置
    1ffc:	88 e9       	ldi	r24, 0x98	; 152
    1ffe:	0e 94 6a 0f 	call	0x1ed4	; 0x1ed4 <fnPR12>
    2002:	80 e0       	ldi	r24, 0x00	; 0
    return(0);
}
    2004:	08 95       	ret

00002006 <dprintf>:
/********************************************************/
/* ASCII(8*16) 及 汉字(16*16) 显示函数      */
/********************************************************/
unsigned char dprintf(unsigned char x,unsigned char y, char *ptr)
{
    2006:	8f 92       	push	r8
    2008:	9f 92       	push	r9
    200a:	bf 92       	push	r11
    200c:	cf 92       	push	r12
    200e:	df 92       	push	r13
    2010:	ef 92       	push	r14
    2012:	ff 92       	push	r15
    2014:	0f 93       	push	r16
    2016:	1f 93       	push	r17
    2018:	cf 93       	push	r28
    201a:	df 93       	push	r29
    201c:	98 2f       	mov	r25, r24
    201e:	86 2f       	mov	r24, r22
    2020:	4a 01       	movw	r8, r20
    uLen=0;
    i=0;
    uRow = y;
    uCol = x;
//   ptrGB_16=(ptrtypFNT_GB16)GB_16t;
    fnSetPos(uRow*16,uCol);      //起点定位
    2022:	82 95       	swap	r24
    2024:	80 7f       	andi	r24, 0xF0	; 240
    2026:	69 2f       	mov	r22, r25
    2028:	0e 94 a0 0f 	call	0x1f40	; 0x1f40 <fnSetPos>
    202c:	bb 24       	eor	r11, r11
    202e:	01 c0       	rjmp	.+2      	; 0x2032 <dprintf+0x2c>
    while (ptr[uLen]!=0) //探测字串长度
    {
        uLen++;
    2030:	b3 94       	inc	r11
    i=0;
    uRow = y;
    uCol = x;
//   ptrGB_16=(ptrtypFNT_GB16)GB_16t;
    fnSetPos(uRow*16,uCol);      //起点定位
    while (ptr[uLen]!=0) //探测字串长度
    2032:	f4 01       	movw	r30, r8
    2034:	eb 0d       	add	r30, r11
    2036:	f1 1d       	adc	r31, r1
    2038:	80 81       	ld	r24, Z
    203a:	88 23       	and	r24, r24
    203c:	c9 f7       	brne	.-14     	; 0x2030 <dprintf+0x2a>
    203e:	cc 24       	eor	r12, r12
    2040:	8e c0       	rjmp	.+284    	; 0x215e <dprintf+0x158>
    {
        uLen++;
    }	
    while(i<uLen)
    {
    	c1 = ptr[i];
    2042:	f4 01       	movw	r30, r8
    2044:	ec 0d       	add	r30, r12
    2046:	f1 1d       	adc	r31, r1
    2048:	00 81       	ld	r16, Z
    	c2 = ptr[i+1];
    204a:	91 81       	ldd	r25, Z+1	; 0x01
/************************************************/
/* 取当前行数据*/
/************************************************/
unsigned char fnGetRow(void)
{
    return(gCurRow);
    204c:	e0 90 3c 03 	lds	r14, 0x033C
/************************************************/
/* 取当前列数据*/
/************************************************/
unsigned char fnGetCol(void)
{
    return(gCurCol);
    2050:	f0 90 3b 03 	lds	r15, 0x033B
    	c1 = ptr[i];
    	c2 = ptr[i+1];
        //ascii字符与汉字内码的区别在于128做分界，大于界线的为汉字码
    	uRow = fnGetRow();    
    	uCol = fnGetCol();
    	if(c1 <=128)	// ASCII
    2054:	01 38       	cpi	r16, 0x81	; 129
    2056:	48 f5       	brcc	.+82     	; 0x20aa <dprintf+0xa4>
    2058:	1e 2d       	mov	r17, r14
    205a:	1f 5f       	subi	r17, 0xFF	; 255
    205c:	c0 2f       	mov	r28, r16
    205e:	d0 e0       	ldi	r29, 0x00	; 0
    2060:	24 e0       	ldi	r18, 0x04	; 4
    2062:	cc 0f       	add	r28, r28
    2064:	dd 1f       	adc	r29, r29
    2066:	2a 95       	dec	r18
    2068:	e1 f7       	brne	.-8      	; 0x2062 <dprintf+0x5c>
    206a:	cc 5a       	subi	r28, 0xAC	; 172
    206c:	d1 40       	sbci	r29, 0x01	; 1
      	{
            for(j=0;j<16;j++) //写16行
    206e:	91 e1       	ldi	r25, 0x11	; 17
    2070:	d9 2e       	mov	r13, r25
    2072:	de 0c       	add	r13, r14
            {
        	fnPR12(LC_AUT_WR);    			// 写数据(命令)
    2074:	80 eb       	ldi	r24, 0xB0	; 176
    2076:	0e 94 6a 0f 	call	0x1ed4	; 0x1ed4 <fnPR12>
        	if (c1 >= 0x20)
    207a:	00 32       	cpi	r16, 0x20	; 32
    207c:	18 f0       	brcs	.+6      	; 0x2084 <dprintf+0x7e>
          	{
            	    fnPR13( pgm_read_byte(ASC_MSK+(c1-0x20)*ASC_CHR_HEIGHT+j-(16-ASC_CHR_HEIGHT)) );//pgm_read_byte(ASC_MSK+(c1-0x20)*ASC_CHR_HEIGHT+j-(16-ASC_CHR_HEIGHT))
    207e:	fe 01       	movw	r30, r28
    2080:	84 91       	lpm	r24, Z+
    2082:	01 c0       	rjmp	.+2      	; 0x2086 <dprintf+0x80>
          	}
        	else
        	{
          	    fnPR13(cData);
    2084:	80 e0       	ldi	r24, 0x00	; 0
    2086:	0e 94 7d 0f 	call	0x1efa	; 0x1efa <fnPR13>
          	}
         	fnPR12(LC_AUT_OVR);  			//写数据结束
    208a:	82 eb       	ldi	r24, 0xB2	; 178
    208c:	0e 94 6a 0f 	call	0x1ed4	; 0x1ed4 <fnPR12>
                fnSetPos(uRow+j+1,uCol);
    2090:	81 2f       	mov	r24, r17
    2092:	6f 2d       	mov	r22, r15
    2094:	0e 94 a0 0f 	call	0x1f40	; 0x1f40 <fnSetPos>
    2098:	1f 5f       	subi	r17, 0xFF	; 255
    209a:	21 96       	adiw	r28, 0x01	; 1
        //ascii字符与汉字内码的区别在于128做分界，大于界线的为汉字码
    	uRow = fnGetRow();    
    	uCol = fnGetCol();
    	if(c1 <=128)	// ASCII
      	{
            for(j=0;j<16;j++) //写16行
    209c:	1d 15       	cp	r17, r13
    209e:	51 f7       	brne	.-44     	; 0x2074 <dprintf+0x6e>
          	    fnPR13(cData);
          	}
         	fnPR12(LC_AUT_OVR);  			//写数据结束
                fnSetPos(uRow+j+1,uCol);
             }
            if(c1 != BS)  	// 非退格
    20a0:	08 30       	cpi	r16, 0x08	; 8
    20a2:	09 f4       	brne	.+2      	; 0x20a6 <dprintf+0xa0>
    20a4:	4b c0       	rjmp	.+150    	; 0x213c <dprintf+0x136>
            {
                uCol++;   // 列数加1
    20a6:	f3 94       	inc	r15
    20a8:	49 c0       	rjmp	.+146    	; 0x213c <dprintf+0x136>
    20aa:	e2 ea       	ldi	r30, 0xA2	; 162
    20ac:	f0 e0       	ldi	r31, 0x00	; 0
    20ae:	dd 24       	eor	r13, r13
        }
    	else    	// 中文
      	{
            for(j=0;j<sizeof(GB_16ptr)/2;j++)  	// 查找定位
            {
                if(c1 == GB_16ptr[j][0] && c2 == GB_16ptr[j][1])
    20b0:	80 81       	ld	r24, Z
    20b2:	08 17       	cp	r16, r24
    20b4:	79 f4       	brne	.+30     	; 0x20d4 <dprintf+0xce>
    20b6:	81 81       	ldd	r24, Z+1	; 0x01
    20b8:	98 17       	cp	r25, r24
    20ba:	61 f4       	brne	.+24     	; 0x20d4 <dprintf+0xce>
    20bc:	cd 2d       	mov	r28, r13
    20be:	d0 e0       	ldi	r29, 0x00	; 0
    20c0:	85 e0       	ldi	r24, 0x05	; 5
    20c2:	cc 0f       	add	r28, r28
    20c4:	dd 1f       	adc	r29, r29
    20c6:	8a 95       	dec	r24
    20c8:	e1 f7       	brne	.-8      	; 0x20c2 <dprintf+0xbc>
    20ca:	cc 5a       	subi	r28, 0xAC	; 172
    20cc:	d9 4f       	sbci	r29, 0xF9	; 249
    20ce:	00 e0       	ldi	r16, 0x00	; 0
    20d0:	10 e0       	ldi	r17, 0x00	; 0
    20d2:	06 c0       	rjmp	.+12     	; 0x20e0 <dprintf+0xda>
            }
          			   				
        }
    	else    	// 中文
      	{
            for(j=0;j<sizeof(GB_16ptr)/2;j++)  	// 查找定位
    20d4:	d3 94       	inc	r13
    20d6:	32 96       	adiw	r30, 0x02	; 2
    20d8:	80 e5       	ldi	r24, 0x50	; 80
    20da:	d8 16       	cp	r13, r24
    20dc:	49 f7       	brne	.-46     	; 0x20b0 <dprintf+0xaa>
    20de:	ee cf       	rjmp	.-36     	; 0x20bc <dprintf+0xb6>
                }
          				
            }
            for(k=0;k<16;k++)
            {
                fnSetPos(uRow+k,uCol);
    20e0:	8e 2d       	mov	r24, r14
    20e2:	80 0f       	add	r24, r16
    20e4:	6f 2d       	mov	r22, r15
    20e6:	0e 94 a0 0f 	call	0x1f40	; 0x1f40 <fnSetPos>
        	fnPR12(LC_AUT_WR);      		// 写数据
    20ea:	80 eb       	ldi	r24, 0xB0	; 176
    20ec:	0e 94 6a 0f 	call	0x1ed4	; 0x1ed4 <fnPR12>
        	if(j < sizeof(GB_16ptr)/2)
    20f0:	ef e4       	ldi	r30, 0x4F	; 79
    20f2:	ed 15       	cp	r30, r13
    20f4:	48 f0       	brcs	.+18     	; 0x2108 <dprintf+0x102>
          	{
          	    fnPR13(pgm_read_byte(GB_16+j*32+k*2));
    20f6:	fe 01       	movw	r30, r28
    20f8:	84 91       	lpm	r24, Z+
    20fa:	0e 94 7d 0f 	call	0x1efa	; 0x1efa <fnPR13>
          	    fnPR13(pgm_read_byte(GB_16+j*32+k*2+1));
    20fe:	21 96       	adiw	r28, 0x01	; 1
    2100:	fe 01       	movw	r30, r28
    2102:	84 91       	lpm	r24, Z+
    2104:	21 97       	sbiw	r28, 0x01	; 1
    2106:	0c c0       	rjmp	.+24     	; 0x2120 <dprintf+0x11a>
          	}
        	else   		// 未找到该字
          	{
          	    if(k < 4)
    2108:	04 30       	cpi	r16, 0x04	; 4
    210a:	11 05       	cpc	r17, r1
    210c:	28 f4       	brcc	.+10     	; 0x2118 <dprintf+0x112>
            	    {
                        fnPR13(0x00);
    210e:	80 e0       	ldi	r24, 0x00	; 0
    2110:	0e 94 7d 0f 	call	0x1efa	; 0x1efa <fnPR13>
            		fnPR13(0x00);
    2114:	80 e0       	ldi	r24, 0x00	; 0
    2116:	04 c0       	rjmp	.+8      	; 0x2120 <dprintf+0x11a>
            	     }
         	    else
            	    {
            		fnPR13(0xff);
    2118:	8f ef       	ldi	r24, 0xFF	; 255
    211a:	0e 94 7d 0f 	call	0x1efa	; 0x1efa <fnPR13>
			fnPR13(0xff);
    211e:	8f ef       	ldi	r24, 0xFF	; 255
    2120:	0e 94 7d 0f 	call	0x1efa	; 0x1efa <fnPR13>
            	    }
                }
        	fnPR12(LC_AUT_OVR);
    2124:	82 eb       	ldi	r24, 0xB2	; 178
    2126:	0e 94 6a 0f 	call	0x1ed4	; 0x1ed4 <fnPR12>
                {
                    break;
                }
          				
            }
            for(k=0;k<16;k++)
    212a:	0f 5f       	subi	r16, 0xFF	; 255
    212c:	1f 4f       	sbci	r17, 0xFF	; 255
    212e:	22 96       	adiw	r28, 0x02	; 2
    2130:	00 31       	cpi	r16, 0x10	; 16
    2132:	11 05       	cpc	r17, r1
    2134:	a9 f6       	brne	.-86     	; 0x20e0 <dprintf+0xda>
			fnPR13(0xff);
            	    }
                }
        	fnPR12(LC_AUT_OVR);
            }
      	    uCol += 2;
    2136:	f2 e0       	ldi	r31, 0x02	; 2
    2138:	ff 0e       	add	r15, r31
      	    i++;
    213a:	c3 94       	inc	r12
        };
    	if(uCol >= 30)      					// 光标后移
    213c:	8d e1       	ldi	r24, 0x1D	; 29
    213e:	8f 15       	cp	r24, r15
    2140:	48 f4       	brcc	.+18     	; 0x2154 <dprintf+0x14e>
      	{
      	    uRow += 16;
    2142:	e0 e1       	ldi	r30, 0x10	; 16
    2144:	ee 0e       	add	r14, r30
            if(uRow < 0x80)
    2146:	e7 fe       	sbrs	r14, 7
    2148:	03 c0       	rjmp	.+6      	; 0x2150 <dprintf+0x14a>
    214a:	ee 24       	eor	r14, r14
    214c:	ff 24       	eor	r15, r15
    214e:	02 c0       	rjmp	.+4      	; 0x2154 <dprintf+0x14e>
            {
                uCol -= 30;
    2150:	f2 ee       	ldi	r31, 0xE2	; 226
    2152:	ff 0e       	add	r15, r31
            {
        	uRow = 0;
        	uCol = 0;
            }
      	 }
         fnSetPos(uRow,uCol);
    2154:	8e 2d       	mov	r24, r14
    2156:	6f 2d       	mov	r22, r15
    2158:	0e 94 a0 0f 	call	0x1f40	; 0x1f40 <fnSetPos>
    	 i++;
    215c:	c3 94       	inc	r12
    fnSetPos(uRow*16,uCol);      //起点定位
    while (ptr[uLen]!=0) //探测字串长度
    {
        uLen++;
    }	
    while(i<uLen)
    215e:	cb 14       	cp	r12, r11
    2160:	08 f4       	brcc	.+2      	; 0x2164 <dprintf+0x15e>
    2162:	6f cf       	rjmp	.-290    	; 0x2042 <dprintf+0x3c>
      	 }
         fnSetPos(uRow,uCol);
    	 i++;
    }
    return uLen;        //返回字串长度，汉字按2字节计算
}  
    2164:	8b 2d       	mov	r24, r11
    2166:	df 91       	pop	r29
    2168:	cf 91       	pop	r28
    216a:	1f 91       	pop	r17
    216c:	0f 91       	pop	r16
    216e:	ff 90       	pop	r15
    2170:	ef 90       	pop	r14
    2172:	df 90       	pop	r13
    2174:	cf 90       	pop	r12
    2176:	bf 90       	pop	r11
    2178:	9f 90       	pop	r9
    217a:	8f 90       	pop	r8
    217c:	08 95       	ret

0000217e <shortdelay>:
        {
            i--;
        }
    tt--;
    }
}
    217e:	08 95       	ret

00002180 <point>:
/*************************/
/* 画点*/
/*************************/
void point(unsigned char x,unsigned char y,unsigned char s)
{
    2180:	0f 93       	push	r16
    2182:	1f 93       	push	r17
    2184:	08 2f       	mov	r16, r24
    2186:	86 2f       	mov	r24, r22
    2188:	14 2f       	mov	r17, r20
    unsigned char x1;
    x1 = x >> 3; // 取Y方向分页地址
    fnSetPos(y,x1); // 起点定位
    218a:	60 2f       	mov	r22, r16
    218c:	66 95       	lsr	r22
    218e:	66 95       	lsr	r22
    2190:	66 95       	lsr	r22
    2192:	0e 94 a0 0f 	call	0x1f40	; 0x1f40 <fnSetPos>
    x1 = turnf[ x & 0x07 ];
    2196:	e0 2f       	mov	r30, r16
    2198:	f0 e0       	ldi	r31, 0x00	; 0
    219a:	e7 70       	andi	r30, 0x07	; 7
    219c:	f0 70       	andi	r31, 0x00	; 0
    219e:	e6 5b       	subi	r30, 0xB6	; 182
    21a0:	fe 4f       	sbci	r31, 0xFE	; 254
    21a2:	80 81       	ld	r24, Z
    x1 = 0xF0 | x1 | s; // 字节内位置计算
    fnPR12(x1); // 画上屏幕S显示属性8 画点0 擦除点
    21a4:	10 6f       	ori	r17, 0xF0	; 240
    21a6:	81 2b       	or	r24, r17
    21a8:	0e 94 6a 0f 	call	0x1ed4	; 0x1ed4 <fnPR12>
}
    21ac:	1f 91       	pop	r17
    21ae:	0f 91       	pop	r16
    21b0:	08 95       	ret

000021b2 <Linexy>:
/************************************************/
/* 画线任意方向的斜线,直线数学方程aX+bY=1 */
/************************************************/
void Linexy(unsigned char x0,unsigned char y0,unsigned char xt,unsigned char yt,unsigned char s)
{
    21b2:	2f 92       	push	r2
    21b4:	3f 92       	push	r3
    21b6:	4f 92       	push	r4
    21b8:	5f 92       	push	r5
    21ba:	6f 92       	push	r6
    21bc:	7f 92       	push	r7
    21be:	8f 92       	push	r8
    21c0:	9f 92       	push	r9
    21c2:	af 92       	push	r10
    21c4:	bf 92       	push	r11
    21c6:	cf 92       	push	r12
    21c8:	df 92       	push	r13
    21ca:	ef 92       	push	r14
    21cc:	ff 92       	push	r15
    21ce:	0f 93       	push	r16
    21d0:	1f 93       	push	r17
    21d2:	df 93       	push	r29
    21d4:	cf 93       	push	r28
    21d6:	00 d0       	rcall	.+0      	; 0x21d8 <Linexy+0x26>
    21d8:	00 d0       	rcall	.+0      	; 0x21da <Linexy+0x28>
    21da:	00 d0       	rcall	.+0      	; 0x21dc <Linexy+0x2a>
    21dc:	cd b7       	in	r28, 0x3d	; 61
    21de:	de b7       	in	r29, 0x3e	; 62
    21e0:	0a 83       	std	Y+2, r16	; 0x02
    register unsigned char t;
    int xerr = 0,yerr = 0;
    int delta_x,delta_y,distance;
    int incx,incy,uRow,uCol;
    delta_x = xt-x0; // 计算坐标增量
    21e2:	28 2e       	mov	r2, r24
    21e4:	33 24       	eor	r3, r3
    21e6:	04 2f       	mov	r16, r20
    21e8:	10 e0       	ldi	r17, 0x00	; 0
    21ea:	02 19       	sub	r16, r2
    21ec:	13 09       	sbc	r17, r3
    delta_y = yt-y0;
    21ee:	66 2e       	mov	r6, r22
    21f0:	77 24       	eor	r7, r7
    21f2:	82 2f       	mov	r24, r18
    21f4:	90 e0       	ldi	r25, 0x00	; 0
    21f6:	86 19       	sub	r24, r6
    21f8:	97 09       	sbc	r25, r7
    21fa:	9e 83       	std	Y+6, r25	; 0x06
    21fc:	8d 83       	std	Y+5, r24	; 0x05
    uRow = x0;
    uCol = y0;
    if(delta_x>0)
    21fe:	10 16       	cp	r1, r16
    2200:	11 06       	cpc	r1, r17
    2202:	24 f4       	brge	.+8      	; 0x220c <Linexy+0x5a>
    2204:	41 e0       	ldi	r20, 0x01	; 1
    2206:	44 2e       	mov	r4, r20
    2208:	51 2c       	mov	r5, r1
    220a:	0c c0       	rjmp	.+24     	; 0x2224 <Linexy+0x72>
    {
        incx = 1; // 设置单步方向
    }
    else if( delta_x==0 )
    220c:	01 15       	cp	r16, r1
    220e:	11 05       	cpc	r17, r1
    2210:	19 f4       	brne	.+6      	; 0x2218 <Linexy+0x66>
    2212:	44 24       	eor	r4, r4
    2214:	55 24       	eor	r5, r5
    2216:	06 c0       	rjmp	.+12     	; 0x2224 <Linexy+0x72>
        incx=0; // 垂直线
    }
    else
    {
        incx = -1;
        delta_x = -delta_x;
    2218:	10 95       	com	r17
    221a:	01 95       	neg	r16
    221c:	1f 4f       	sbci	r17, 0xFF	; 255
    221e:	44 24       	eor	r4, r4
    2220:	4a 94       	dec	r4
    2222:	54 2c       	mov	r5, r4
     
    }
    if(delta_y>0)
    2224:	ed 81       	ldd	r30, Y+5	; 0x05
    2226:	fe 81       	ldd	r31, Y+6	; 0x06
    2228:	1e 16       	cp	r1, r30
    222a:	1f 06       	cpc	r1, r31
    222c:	24 f4       	brge	.+8      	; 0x2236 <Linexy+0x84>
    222e:	31 e0       	ldi	r19, 0x01	; 1
    2230:	83 2e       	mov	r8, r19
    2232:	91 2c       	mov	r9, r1
    2234:	11 c0       	rjmp	.+34     	; 0x2258 <Linexy+0xa6>
    {
        incy=1;
    }
    else if( delta_y==0 ) 
    2236:	2d 81       	ldd	r18, Y+5	; 0x05
    2238:	3e 81       	ldd	r19, Y+6	; 0x06
    223a:	23 2b       	or	r18, r19
    223c:	19 f4       	brne	.+6      	; 0x2244 <Linexy+0x92>
    223e:	88 24       	eor	r8, r8
    2240:	99 24       	eor	r9, r9
    2242:	0a c0       	rjmp	.+20     	; 0x2258 <Linexy+0xa6>
        incy=0; // 水平线
    }
    else 
    {
        incy=-1;
        delta_y=-delta_y;
    2244:	8d 81       	ldd	r24, Y+5	; 0x05
    2246:	9e 81       	ldd	r25, Y+6	; 0x06
    2248:	90 95       	com	r25
    224a:	81 95       	neg	r24
    224c:	9f 4f       	sbci	r25, 0xFF	; 255
    224e:	9e 83       	std	Y+6, r25	; 0x06
    2250:	8d 83       	std	Y+5, r24	; 0x05
    2252:	88 24       	eor	r8, r8
    2254:	8a 94       	dec	r8
    2256:	98 2c       	mov	r9, r8
    2258:	cd 80       	ldd	r12, Y+5	; 0x05
    225a:	de 80       	ldd	r13, Y+6	; 0x06
    225c:	c0 16       	cp	r12, r16
    225e:	d1 06       	cpc	r13, r17
    2260:	0c f4       	brge	.+2      	; 0x2264 <Linexy+0xb2>
    2262:	68 01       	movw	r12, r16
    2264:	19 82       	std	Y+1, r1	; 0x01
    2266:	aa 24       	eor	r10, r10
    2268:	bb 24       	eor	r11, r11
    226a:	ee 24       	eor	r14, r14
    226c:	ff 24       	eor	r15, r15
    }
    else 
    {
        distance=delta_y;
    }
    for( t=0;t <= distance+1; t++ )   // 画线输出
    226e:	f6 01       	movw	r30, r12
    2270:	31 96       	adiw	r30, 0x01	; 1
    2272:	fc 83       	std	Y+4, r31	; 0x04
    2274:	eb 83       	std	Y+3, r30	; 0x03
    2276:	1c c0       	rjmp	.+56     	; 0x22b0 <Linexy+0xfe>
    { 
        point(uRow,uCol,s); // 画点
    2278:	82 2d       	mov	r24, r2
    227a:	66 2d       	mov	r22, r6
    227c:	4a 81       	ldd	r20, Y+2	; 0x02
    227e:	0e 94 c0 10 	call	0x2180	; 0x2180 <point>
        xerr += delta_x;
    2282:	a0 0e       	add	r10, r16
    2284:	b1 1e       	adc	r11, r17
        yerr += delta_y;
    2286:	2d 81       	ldd	r18, Y+5	; 0x05
    2288:	3e 81       	ldd	r19, Y+6	; 0x06
    228a:	e2 0e       	add	r14, r18
    228c:	f3 1e       	adc	r15, r19
        if( xerr > distance )
    228e:	ca 14       	cp	r12, r10
    2290:	db 04       	cpc	r13, r11
    2292:	24 f4       	brge	.+8      	; 0x229c <Linexy+0xea>
        {
            xerr -= distance;
    2294:	ac 18       	sub	r10, r12
    2296:	bd 08       	sbc	r11, r13
            uRow += incx;
    2298:	24 0c       	add	r2, r4
    229a:	35 1c       	adc	r3, r5
        }
        if( yerr > distance )
    229c:	ce 14       	cp	r12, r14
    229e:	df 04       	cpc	r13, r15
    22a0:	24 f4       	brge	.+8      	; 0x22aa <Linexy+0xf8>
        {
            yerr -= distance;
    22a2:	ec 18       	sub	r14, r12
    22a4:	fd 08       	sbc	r15, r13
            uCol += incy;
    22a6:	68 0c       	add	r6, r8
    22a8:	79 1c       	adc	r7, r9
    }
    else 
    {
        distance=delta_y;
    }
    for( t=0;t <= distance+1; t++ )   // 画线输出
    22aa:	39 81       	ldd	r19, Y+1	; 0x01
    22ac:	3f 5f       	subi	r19, 0xFF	; 255
    22ae:	39 83       	std	Y+1, r19	; 0x01
    22b0:	e9 81       	ldd	r30, Y+1	; 0x01
    22b2:	8e 2f       	mov	r24, r30
    22b4:	90 e0       	ldi	r25, 0x00	; 0
    22b6:	2b 81       	ldd	r18, Y+3	; 0x03
    22b8:	3c 81       	ldd	r19, Y+4	; 0x04
    22ba:	28 17       	cp	r18, r24
    22bc:	39 07       	cpc	r19, r25
    22be:	e4 f6       	brge	.-72     	; 0x2278 <Linexy+0xc6>
        {
            yerr -= distance;
            uCol += incy;
        }
    }
}
    22c0:	26 96       	adiw	r28, 0x06	; 6
    22c2:	0f b6       	in	r0, 0x3f	; 63
    22c4:	f8 94       	cli
    22c6:	de bf       	out	0x3e, r29	; 62
    22c8:	0f be       	out	0x3f, r0	; 63
    22ca:	cd bf       	out	0x3d, r28	; 61
    22cc:	cf 91       	pop	r28
    22ce:	df 91       	pop	r29
    22d0:	1f 91       	pop	r17
    22d2:	0f 91       	pop	r16
    22d4:	ff 90       	pop	r15
    22d6:	ef 90       	pop	r14
    22d8:	df 90       	pop	r13
    22da:	cf 90       	pop	r12
    22dc:	bf 90       	pop	r11
    22de:	af 90       	pop	r10
    22e0:	9f 90       	pop	r9
    22e2:	8f 90       	pop	r8
    22e4:	7f 90       	pop	r7
    22e6:	6f 90       	pop	r6
    22e8:	5f 90       	pop	r5
    22ea:	4f 90       	pop	r4
    22ec:	3f 90       	pop	r3
    22ee:	2f 90       	pop	r2
    22f0:	08 95       	ret

000022f2 <circle>:
/********************************************/
/* 画圆数学方程(X-Ox)^2+(Y-Oy)^2=Rx^2 */
/********************************************/
void circle(unsigned char Ox,unsigned char Oy,unsigned char Rx,unsigned char s)
{
    22f2:	3f 92       	push	r3
    22f4:	4f 92       	push	r4
    22f6:	5f 92       	push	r5
    22f8:	6f 92       	push	r6
    22fa:	7f 92       	push	r7
    22fc:	8f 92       	push	r8
    22fe:	9f 92       	push	r9
    2300:	af 92       	push	r10
    2302:	bf 92       	push	r11
    2304:	cf 92       	push	r12
    2306:	df 92       	push	r13
    2308:	ef 92       	push	r14
    230a:	ff 92       	push	r15
    230c:	0f 93       	push	r16
    230e:	1f 93       	push	r17
    2310:	df 93       	push	r29
    2312:	cf 93       	push	r28
    2314:	00 d0       	rcall	.+0      	; 0x2316 <circle+0x24>
    2316:	00 d0       	rcall	.+0      	; 0x2318 <circle+0x26>
    2318:	00 d0       	rcall	.+0      	; 0x231a <circle+0x28>
    231a:	cd b7       	in	r28, 0x3d	; 61
    231c:	de b7       	in	r29, 0x3e	; 62
    231e:	38 2e       	mov	r3, r24
    2320:	86 2e       	mov	r8, r22
    2322:	92 2e       	mov	r9, r18
    unsigned int xx,rr;
    unsigned int xt,yt;
    unsigned int rs,row,col;
    yt = Rx;
    2324:	84 2f       	mov	r24, r20
    2326:	90 e0       	ldi	r25, 0x00	; 0
    2328:	9e 83       	std	Y+6, r25	; 0x06
    232a:	8d 83       	std	Y+5, r24	; 0x05
    rr = (unsigned int)Rx*Rx+1; // 补偿1 修正方形
    232c:	88 9f       	mul	r24, r24
    232e:	20 01       	movw	r4, r0
    2330:	89 9f       	mul	r24, r25
    2332:	50 0c       	add	r5, r0
    2334:	98 9f       	mul	r25, r24
    2336:	50 0c       	add	r5, r0
    2338:	11 24       	eor	r1, r1
    233a:	08 94       	sec
    233c:	41 1c       	adc	r4, r1
    233e:	51 1c       	adc	r5, r1
    rs = (yt+(yt>>1))>>1; // (*0.75)分开1/8圆弧来画
    2340:	3c 01       	movw	r6, r24
    2342:	76 94       	lsr	r7
    2344:	67 94       	ror	r6
    2346:	68 0e       	add	r6, r24
    2348:	79 1e       	adc	r7, r25
    234a:	76 94       	lsr	r7
    234c:	67 94       	ror	r6
    234e:	aa 24       	eor	r10, r10
    2350:	bb 24       	eor	r11, r11
        xx = xt*xt;
        while ((yt*yt)>(rr-xx))
        {
            yt--;
        }
        row = Ox+xt; // 第一象限
    2352:	e3 2d       	mov	r30, r3
    2354:	f0 e0       	ldi	r31, 0x00	; 0
    2356:	fa 83       	std	Y+2, r31	; 0x02
    2358:	e9 83       	std	Y+1, r30	; 0x01
        col = Oy-yt;
    235a:	48 2d       	mov	r20, r8
    235c:	50 e0       	ldi	r21, 0x00	; 0
    235e:	5c 83       	std	Y+4, r21	; 0x04
    2360:	4b 83       	std	Y+3, r20	; 0x03
    yt = Rx;
    rr = (unsigned int)Rx*Rx+1; // 补偿1 修正方形
    rs = (yt+(yt>>1))>>1; // (*0.75)分开1/8圆弧来画
    for (xt=0;xt<=rs;xt++)
    {
        xx = xt*xt;
    2362:	aa 9c       	mul	r10, r10
    2364:	c0 01       	movw	r24, r0
    2366:	ab 9c       	mul	r10, r11
    2368:	90 0d       	add	r25, r0
    236a:	ba 9c       	mul	r11, r10
    236c:	90 0d       	add	r25, r0
    236e:	11 24       	eor	r1, r1
        while ((yt*yt)>(rr-xx))
    2370:	92 01       	movw	r18, r4
    2372:	28 1b       	sub	r18, r24
    2374:	39 0b       	sbc	r19, r25
    2376:	05 c0       	rjmp	.+10     	; 0x2382 <circle+0x90>
        {
            yt--;
    2378:	8d 81       	ldd	r24, Y+5	; 0x05
    237a:	9e 81       	ldd	r25, Y+6	; 0x06
    237c:	01 97       	sbiw	r24, 0x01	; 1
    237e:	9e 83       	std	Y+6, r25	; 0x06
    2380:	8d 83       	std	Y+5, r24	; 0x05
    rr = (unsigned int)Rx*Rx+1; // 补偿1 修正方形
    rs = (yt+(yt>>1))>>1; // (*0.75)分开1/8圆弧来画
    for (xt=0;xt<=rs;xt++)
    {
        xx = xt*xt;
        while ((yt*yt)>(rr-xx))
    2382:	ed 81       	ldd	r30, Y+5	; 0x05
    2384:	fe 81       	ldd	r31, Y+6	; 0x06
    2386:	ee 9f       	mul	r30, r30
    2388:	c0 01       	movw	r24, r0
    238a:	ef 9f       	mul	r30, r31
    238c:	90 0d       	add	r25, r0
    238e:	fe 9f       	mul	r31, r30
    2390:	90 0d       	add	r25, r0
    2392:	11 24       	eor	r1, r1
    2394:	28 17       	cp	r18, r24
    2396:	39 07       	cpc	r19, r25
    2398:	78 f3       	brcs	.-34     	; 0x2378 <circle+0x86>
}
/********************************************/
/* 画圆数学方程(X-Ox)^2+(Y-Oy)^2=Rx^2 */
/********************************************/
void circle(unsigned char Ox,unsigned char Oy,unsigned char Rx,unsigned char s)
{
    239a:	fa 2c       	mov	r15, r10
    239c:	da 2c       	mov	r13, r10
    239e:	d3 0c       	add	r13, r3
        {
            yt--;
        }
        row = Ox+xt; // 第一象限
        col = Oy-yt;
        point(row,col,s);
    23a0:	0b 81       	ldd	r16, Y+3	; 0x03
    23a2:	1c 81       	ldd	r17, Y+4	; 0x04
    23a4:	0e 1b       	sub	r16, r30
    23a6:	1f 0b       	sbc	r17, r31
    23a8:	8d 2d       	mov	r24, r13
    23aa:	60 2f       	mov	r22, r16
    23ac:	49 2d       	mov	r20, r9
    23ae:	0e 94 c0 10 	call	0x2180	; 0x2180 <point>
    23b2:	e3 2c       	mov	r14, r3
    23b4:	ea 18       	sub	r14, r10
        row = Ox-xt; // 第二象限
        point(row,col,s);
    23b6:	8e 2d       	mov	r24, r14
    23b8:	60 2f       	mov	r22, r16
    23ba:	49 2d       	mov	r20, r9
    23bc:	0e 94 c0 10 	call	0x2180	; 0x2180 <point>
        col = Oy+yt; // 第三象限
        point(row,col,s);
    23c0:	0b 81       	ldd	r16, Y+3	; 0x03
    23c2:	1c 81       	ldd	r17, Y+4	; 0x04
    23c4:	4d 81       	ldd	r20, Y+5	; 0x05
    23c6:	5e 81       	ldd	r21, Y+6	; 0x06
    23c8:	04 0f       	add	r16, r20
    23ca:	15 1f       	adc	r17, r21
    23cc:	8e 2d       	mov	r24, r14
    23ce:	60 2f       	mov	r22, r16
    23d0:	49 2d       	mov	r20, r9
    23d2:	0e 94 c0 10 	call	0x2180	; 0x2180 <point>
        row = Ox+xt; // 第四象限
        point(row,col,s);
    23d6:	8d 2d       	mov	r24, r13
    23d8:	60 2f       	mov	r22, r16
    23da:	49 2d       	mov	r20, r9
    23dc:	0e 94 c0 10 	call	0x2180	; 0x2180 <point>
        /***************45度镜象画另一半***************/
        row = Ox+yt; // 第一象限
        col = Oy-xt;
        point(row,col,s);
    23e0:	c9 80       	ldd	r12, Y+1	; 0x01
    23e2:	da 80       	ldd	r13, Y+2	; 0x02
    23e4:	8d 81       	ldd	r24, Y+5	; 0x05
    23e6:	9e 81       	ldd	r25, Y+6	; 0x06
    23e8:	c8 0e       	add	r12, r24
    23ea:	d9 1e       	adc	r13, r25
    23ec:	e8 2c       	mov	r14, r8
    23ee:	ea 18       	sub	r14, r10
    23f0:	8c 2d       	mov	r24, r12
    23f2:	6e 2d       	mov	r22, r14
    23f4:	49 2d       	mov	r20, r9
    23f6:	0e 94 c0 10 	call	0x2180	; 0x2180 <point>
        row = Ox-yt; // 第二象限
        point(row,col,s);
    23fa:	09 81       	ldd	r16, Y+1	; 0x01
    23fc:	1a 81       	ldd	r17, Y+2	; 0x02
    23fe:	ed 81       	ldd	r30, Y+5	; 0x05
    2400:	fe 81       	ldd	r31, Y+6	; 0x06
    2402:	0e 1b       	sub	r16, r30
    2404:	1f 0b       	sbc	r17, r31
    2406:	80 2f       	mov	r24, r16
    2408:	6e 2d       	mov	r22, r14
    240a:	49 2d       	mov	r20, r9
    240c:	0e 94 c0 10 	call	0x2180	; 0x2180 <point>
    2410:	f8 0c       	add	r15, r8
        col = Oy+xt; // 第三象限
        point(row,col,s);
    2412:	80 2f       	mov	r24, r16
    2414:	6f 2d       	mov	r22, r15
    2416:	49 2d       	mov	r20, r9
    2418:	0e 94 c0 10 	call	0x2180	; 0x2180 <point>
        row = Ox+yt; // 第四象限
        point(row,col,s);
    241c:	8c 2d       	mov	r24, r12
    241e:	6f 2d       	mov	r22, r15
    2420:	49 2d       	mov	r20, r9
    2422:	0e 94 c0 10 	call	0x2180	; 0x2180 <point>
    unsigned int xt,yt;
    unsigned int rs,row,col;
    yt = Rx;
    rr = (unsigned int)Rx*Rx+1; // 补偿1 修正方形
    rs = (yt+(yt>>1))>>1; // (*0.75)分开1/8圆弧来画
    for (xt=0;xt<=rs;xt++)
    2426:	08 94       	sec
    2428:	a1 1c       	adc	r10, r1
    242a:	b1 1c       	adc	r11, r1
    242c:	6a 14       	cp	r6, r10
    242e:	7b 04       	cpc	r7, r11
    2430:	08 f0       	brcs	.+2      	; 0x2434 <circle+0x142>
    2432:	97 cf       	rjmp	.-210    	; 0x2362 <circle+0x70>
        col = Oy+xt; // 第三象限
        point(row,col,s);
        row = Ox+yt; // 第四象限
        point(row,col,s);
    }
}
    2434:	26 96       	adiw	r28, 0x06	; 6
    2436:	0f b6       	in	r0, 0x3f	; 63
    2438:	f8 94       	cli
    243a:	de bf       	out	0x3e, r29	; 62
    243c:	0f be       	out	0x3f, r0	; 63
    243e:	cd bf       	out	0x3d, r28	; 61
    2440:	cf 91       	pop	r28
    2442:	df 91       	pop	r29
    2444:	1f 91       	pop	r17
    2446:	0f 91       	pop	r16
    2448:	ff 90       	pop	r15
    244a:	ef 90       	pop	r14
    244c:	df 90       	pop	r13
    244e:	cf 90       	pop	r12
    2450:	bf 90       	pop	r11
    2452:	af 90       	pop	r10
    2454:	9f 90       	pop	r9
    2456:	8f 90       	pop	r8
    2458:	7f 90       	pop	r7
    245a:	6f 90       	pop	r6
    245c:	5f 90       	pop	r5
    245e:	4f 90       	pop	r4
    2460:	3f 90       	pop	r3
    2462:	08 95       	ret

00002464 <GetMoonDay>:
static unsigned short const day_code2[3]={0x111,0x130,0x14e};
/****************************************************************************
* 子函数,用于读取数据表中农历月的大月或小月,如果该月为大返回1,为小返回0
****************************************************************************/
static unsigned char GetMoonDay(unsigned char month_p,unsigned short table_addr)
{
    2464:	fb 01       	movw	r30, r22
	switch (month_p)
    2466:	87 30       	cpi	r24, 0x07	; 7
    2468:	09 f4       	brne	.+2      	; 0x246c <GetMoonDay+0x8>
    246a:	47 c0       	rjmp	.+142    	; 0x24fa <GetMoonDay+0x96>
    246c:	88 30       	cpi	r24, 0x08	; 8
    246e:	70 f4       	brcc	.+28     	; 0x248c <GetMoonDay+0x28>
    2470:	83 30       	cpi	r24, 0x03	; 3
    2472:	51 f1       	breq	.+84     	; 0x24c8 <GetMoonDay+0x64>
    2474:	84 30       	cpi	r24, 0x04	; 4
    2476:	28 f4       	brcc	.+10     	; 0x2482 <GetMoonDay+0x1e>
    2478:	81 30       	cpi	r24, 0x01	; 1
    247a:	f1 f0       	breq	.+60     	; 0x24b8 <GetMoonDay+0x54>
    247c:	82 30       	cpi	r24, 0x02	; 2
    247e:	d1 f4       	brne	.+52     	; 0x24b4 <GetMoonDay+0x50>
    2480:	1f c0       	rjmp	.+62     	; 0x24c0 <GetMoonDay+0x5c>
    2482:	85 30       	cpi	r24, 0x05	; 5
    2484:	49 f1       	breq	.+82     	; 0x24d8 <GetMoonDay+0x74>
    2486:	86 30       	cpi	r24, 0x06	; 6
    2488:	70 f5       	brcc	.+92     	; 0x24e6 <GetMoonDay+0x82>
    248a:	22 c0       	rjmp	.+68     	; 0x24d0 <GetMoonDay+0x6c>
    248c:	8a 30       	cpi	r24, 0x0A	; 10
    248e:	09 f4       	brne	.+2      	; 0x2492 <GetMoonDay+0x2e>
    2490:	52 c0       	rjmp	.+164    	; 0x2536 <GetMoonDay+0xd2>
    2492:	8b 30       	cpi	r24, 0x0B	; 11
    2494:	30 f4       	brcc	.+12     	; 0x24a2 <GetMoonDay+0x3e>
    2496:	88 30       	cpi	r24, 0x08	; 8
    2498:	09 f4       	brne	.+2      	; 0x249c <GetMoonDay+0x38>
    249a:	39 c0       	rjmp	.+114    	; 0x250e <GetMoonDay+0xaa>
    249c:	89 30       	cpi	r24, 0x09	; 9
    249e:	51 f4       	brne	.+20     	; 0x24b4 <GetMoonDay+0x50>
    24a0:	40 c0       	rjmp	.+128    	; 0x2522 <GetMoonDay+0xbe>
    24a2:	8c 30       	cpi	r24, 0x0C	; 12
    24a4:	09 f4       	brne	.+2      	; 0x24a8 <GetMoonDay+0x44>
    24a6:	57 c0       	rjmp	.+174    	; 0x2556 <GetMoonDay+0xf2>
    24a8:	8c 30       	cpi	r24, 0x0C	; 12
    24aa:	08 f4       	brcc	.+2      	; 0x24ae <GetMoonDay+0x4a>
    24ac:	4d c0       	rjmp	.+154    	; 0x2548 <GetMoonDay+0xe4>
    24ae:	8d 30       	cpi	r24, 0x0D	; 13
    24b0:	09 f4       	brne	.+2      	; 0x24b4 <GetMoonDay+0x50>
    24b2:	56 c0       	rjmp	.+172    	; 0x2560 <GetMoonDay+0xfc>
    24b4:	80 e0       	ldi	r24, 0x00	; 0
    24b6:	08 95       	ret
	{
		case 1:
			if((pgm_read_byte(year_code+table_addr)&0x08)==0)	return(0);
    24b8:	ec 5a       	subi	r30, 0xAC	; 172
    24ba:	ff 4e       	sbci	r31, 0xEF	; 239
    24bc:	84 91       	lpm	r24, Z+
    24be:	34 c0       	rjmp	.+104    	; 0x2528 <GetMoonDay+0xc4>
			else 								return(1);
		case 2:
			if((pgm_read_byte(year_code+table_addr)&0x04)==0)	return(0);
    24c0:	ec 5a       	subi	r30, 0xAC	; 172
    24c2:	ff 4e       	sbci	r31, 0xEF	; 239
    24c4:	84 91       	lpm	r24, Z+
    24c6:	3a c0       	rjmp	.+116    	; 0x253c <GetMoonDay+0xd8>
			else 								return(1);
		case 3:
			if((pgm_read_byte(year_code+table_addr)&0x02)==0)	return(0);
    24c8:	ec 5a       	subi	r30, 0xAC	; 172
    24ca:	ff 4e       	sbci	r31, 0xEF	; 239
    24cc:	84 91       	lpm	r24, Z+
    24ce:	3f c0       	rjmp	.+126    	; 0x254e <GetMoonDay+0xea>
			else 								return(1);
		case 4:
			if((pgm_read_byte(year_code+table_addr)&0x01)==0)	return(0);
    24d0:	ec 5a       	subi	r30, 0xAC	; 172
    24d2:	ff 4e       	sbci	r31, 0xEF	; 239
    24d4:	84 91       	lpm	r24, Z+
    24d6:	42 c0       	rjmp	.+132    	; 0x255c <GetMoonDay+0xf8>
			else 								return(1);
		case 5:
			if((pgm_read_byte(year_code+table_addr+1)&0x80)==0)	return(0);
    24d8:	eb 5a       	subi	r30, 0xAB	; 171
    24da:	ff 4e       	sbci	r31, 0xEF	; 239
    24dc:	84 91       	lpm	r24, Z+
    24de:	88 1f       	adc	r24, r24
    24e0:	88 27       	eor	r24, r24
    24e2:	88 1f       	adc	r24, r24
    24e4:	08 95       	ret
			else 									return(1);
		case 6:
			if((pgm_read_byte(year_code+table_addr+1)&0x40)==0)	return(0);
    24e6:	eb 5a       	subi	r30, 0xAB	; 171
    24e8:	ff 4e       	sbci	r31, 0xEF	; 239
    24ea:	84 91       	lpm	r24, Z+
    24ec:	90 e0       	ldi	r25, 0x00	; 0
    24ee:	76 e0       	ldi	r23, 0x06	; 6
    24f0:	96 95       	lsr	r25
    24f2:	87 95       	ror	r24
    24f4:	7a 95       	dec	r23
    24f6:	e1 f7       	brne	.-8      	; 0x24f0 <GetMoonDay+0x8c>
    24f8:	31 c0       	rjmp	.+98     	; 0x255c <GetMoonDay+0xf8>
			else 									return(1);
		case 7:
			if((pgm_read_byte(year_code+table_addr+1)&0x20)==0)	return(0);
    24fa:	eb 5a       	subi	r30, 0xAB	; 171
    24fc:	ff 4e       	sbci	r31, 0xEF	; 239
    24fe:	84 91       	lpm	r24, Z+
    2500:	90 e0       	ldi	r25, 0x00	; 0
    2502:	65 e0       	ldi	r22, 0x05	; 5
    2504:	96 95       	lsr	r25
    2506:	87 95       	ror	r24
    2508:	6a 95       	dec	r22
    250a:	e1 f7       	brne	.-8      	; 0x2504 <GetMoonDay+0xa0>
    250c:	27 c0       	rjmp	.+78     	; 0x255c <GetMoonDay+0xf8>
			else 									return(1);
		case 8:
			if((pgm_read_byte(year_code+table_addr+1)&0x10)==0)	return(0);
    250e:	eb 5a       	subi	r30, 0xAB	; 171
    2510:	ff 4e       	sbci	r31, 0xEF	; 239
    2512:	84 91       	lpm	r24, Z+
    2514:	90 e0       	ldi	r25, 0x00	; 0
    2516:	54 e0       	ldi	r21, 0x04	; 4
    2518:	96 95       	lsr	r25
    251a:	87 95       	ror	r24
    251c:	5a 95       	dec	r21
    251e:	e1 f7       	brne	.-8      	; 0x2518 <GetMoonDay+0xb4>
    2520:	1d c0       	rjmp	.+58     	; 0x255c <GetMoonDay+0xf8>
			else 									return(1);
		case 9:
			if((pgm_read_byte(year_code+table_addr+1)&0x08)==0)	return(0);
    2522:	eb 5a       	subi	r30, 0xAB	; 171
    2524:	ff 4e       	sbci	r31, 0xEF	; 239
    2526:	84 91       	lpm	r24, Z+
    2528:	90 e0       	ldi	r25, 0x00	; 0
    252a:	43 e0       	ldi	r20, 0x03	; 3
    252c:	96 95       	lsr	r25
    252e:	87 95       	ror	r24
    2530:	4a 95       	dec	r20
    2532:	e1 f7       	brne	.-8      	; 0x252c <GetMoonDay+0xc8>
    2534:	13 c0       	rjmp	.+38     	; 0x255c <GetMoonDay+0xf8>
			else 									return(1);
		case 10:
			if((pgm_read_byte(year_code+table_addr+1)&0x04)==0)	return(0);
    2536:	eb 5a       	subi	r30, 0xAB	; 171
    2538:	ff 4e       	sbci	r31, 0xEF	; 239
    253a:	84 91       	lpm	r24, Z+
    253c:	90 e0       	ldi	r25, 0x00	; 0
    253e:	96 95       	lsr	r25
    2540:	87 95       	ror	r24
    2542:	96 95       	lsr	r25
    2544:	87 95       	ror	r24
    2546:	0a c0       	rjmp	.+20     	; 0x255c <GetMoonDay+0xf8>
			else 									return(1);
		case 11:
			if((pgm_read_byte(year_code+table_addr+1)&0x02)==0)	return(0);
    2548:	eb 5a       	subi	r30, 0xAB	; 171
    254a:	ff 4e       	sbci	r31, 0xEF	; 239
    254c:	84 91       	lpm	r24, Z+
    254e:	90 e0       	ldi	r25, 0x00	; 0
    2550:	96 95       	lsr	r25
    2552:	87 95       	ror	r24
    2554:	03 c0       	rjmp	.+6      	; 0x255c <GetMoonDay+0xf8>
			else 									return(1);
		case 12:
			if((pgm_read_byte(year_code+table_addr+1)&0x01)==0)	return(0);
    2556:	eb 5a       	subi	r30, 0xAB	; 171
    2558:	ff 4e       	sbci	r31, 0xEF	; 239
    255a:	84 91       	lpm	r24, Z+
    255c:	81 70       	andi	r24, 0x01	; 1
    255e:	08 95       	ret
			else 									return(1);
		case 13:
			if((pgm_read_byte(year_code+table_addr+2)&0x80)==0)	return(0);
    2560:	ea 5a       	subi	r30, 0xAA	; 170
    2562:	ff 4e       	sbci	r31, 0xEF	; 239
    2564:	84 91       	lpm	r24, Z+
    2566:	88 1f       	adc	r24, r24
    2568:	88 27       	eor	r24, r24
    256a:	88 1f       	adc	r24, r24
			else 									return(1);
	}
	return(0);
}
    256c:	08 95       	ret

0000256e <GetChinaCalendar>:
unsigned char GetChinaCalendar(
								unsigned int  year,
								unsigned char month,
								unsigned char day,
								unsigned char *p)
{
    256e:	4f 92       	push	r4
    2570:	5f 92       	push	r5
    2572:	6f 92       	push	r6
    2574:	7f 92       	push	r7
    2576:	8f 92       	push	r8
    2578:	9f 92       	push	r9
    257a:	af 92       	push	r10
    257c:	bf 92       	push	r11
    257e:	cf 92       	push	r12
    2580:	df 92       	push	r13
    2582:	ef 92       	push	r14
    2584:	ff 92       	push	r15
    2586:	0f 93       	push	r16
    2588:	1f 93       	push	r17
    258a:	df 93       	push	r29
    258c:	cf 93       	push	r28
    258e:	0f 92       	push	r0
    2590:	cd b7       	in	r28, 0x3d	; 61
    2592:	de b7       	in	r29, 0x3e	; 62
    2594:	fc 01       	movw	r30, r24
    2596:	f6 2e       	mov	r15, r22
    2598:	39 01       	movw	r6, r18
	unsigned char temp1,temp2,temp3,month_p,yearH,yearL;
	unsigned char flag_y;
	unsigned short temp4,table_addr;

	yearH=year/100;	yearL=year%100;
    259a:	64 e6       	ldi	r22, 0x64	; 100
    259c:	70 e0       	ldi	r23, 0x00	; 0
    259e:	0e 94 ea 15 	call	0x2bd4	; 0x2bd4 <__udivmodhi4>
    25a2:	86 2e       	mov	r8, r22
	if((yearH!=19)&&(yearH!=20))	return(0);
    25a4:	86 2f       	mov	r24, r22
    25a6:	83 51       	subi	r24, 0x13	; 19
    25a8:	82 30       	cpi	r24, 0x02	; 2
    25aa:	10 f0       	brcs	.+4      	; 0x25b0 <GetChinaCalendar+0x42>
    25ac:	80 e0       	ldi	r24, 0x00	; 0
    25ae:	ce c0       	rjmp	.+412    	; 0x274c <GetChinaCalendar+0x1de>
{
	unsigned char temp1,temp2,temp3,month_p,yearH,yearL;
	unsigned char flag_y;
	unsigned short temp4,table_addr;

	yearH=year/100;	yearL=year%100;
    25b0:	cf 01       	movw	r24, r30
    25b2:	64 e6       	ldi	r22, 0x64	; 100
    25b4:	70 e0       	ldi	r23, 0x00	; 0
    25b6:	0e 94 ea 15 	call	0x2bd4	; 0x2bd4 <__udivmodhi4>
    25ba:	98 2e       	mov	r9, r24
	if((yearH!=19)&&(yearH!=20))	return(0);

	/* 定位数据表地址 */
	if(yearH==20)	table_addr=(yearL+100-1)*3;
    25bc:	24 e1       	ldi	r18, 0x14	; 20
    25be:	82 16       	cp	r8, r18
    25c0:	39 f4       	brne	.+14     	; 0x25d0 <GetChinaCalendar+0x62>
    25c2:	83 e0       	ldi	r24, 0x03	; 3
    25c4:	98 9e       	mul	r9, r24
    25c6:	80 01       	movw	r16, r0
    25c8:	11 24       	eor	r1, r1
    25ca:	07 5d       	subi	r16, 0xD7	; 215
    25cc:	1e 4f       	sbci	r17, 0xFE	; 254
    25ce:	06 c0       	rjmp	.+12     	; 0x25dc <GetChinaCalendar+0x6e>
	else  			table_addr=(yearL-1)*3;
    25d0:	83 e0       	ldi	r24, 0x03	; 3
    25d2:	98 9e       	mul	r9, r24
    25d4:	80 01       	movw	r16, r0
    25d6:	11 24       	eor	r1, r1
    25d8:	03 50       	subi	r16, 0x03	; 3
    25da:	10 40       	sbci	r17, 0x00	; 0

	/* 取当年春节所在的公历月份 */
	temp1=pgm_read_byte(year_code+table_addr+2)&0x60;
    25dc:	f8 01       	movw	r30, r16
    25de:	ea 5a       	subi	r30, 0xAA	; 170
    25e0:	ff 4e       	sbci	r31, 0xEF	; 239
    25e2:	e4 91       	lpm	r30, Z+
	temp1>>=5;

	/* 取当年春节所在的公历日 */
	temp2=pgm_read_byte(year_code+table_addr+2)&31;
    25e4:	8e 2f       	mov	r24, r30
    25e6:	8f 71       	andi	r24, 0x1F	; 31
	/* 定位数据表地址 */
	if(yearH==20)	table_addr=(yearL+100-1)*3;
	else  			table_addr=(yearL-1)*3;

	/* 取当年春节所在的公历月份 */
	temp1=pgm_read_byte(year_code+table_addr+2)&0x60;
    25e8:	e0 76       	andi	r30, 0x60	; 96

	/* 取当年春节所在的公历日 */
	temp2=pgm_read_byte(year_code+table_addr+2)&31;

	/* 计算当年春年离当年元旦的天数,春节只会在公历1月或2月 */
	if(temp1==1) 	temp3=temp2-1;
    25ea:	e0 32       	cpi	r30, 0x20	; 32
    25ec:	19 f4       	brne	.+6      	; 0x25f4 <GetChinaCalendar+0x86>
    25ee:	d8 2e       	mov	r13, r24
    25f0:	da 94       	dec	r13
    25f2:	03 c0       	rjmp	.+6      	; 0x25fa <GetChinaCalendar+0x8c>
	else 			temp3=temp2+31-1;
    25f4:	5e e1       	ldi	r21, 0x1E	; 30
    25f6:	d5 2e       	mov	r13, r21
    25f8:	d8 0e       	add	r13, r24
    25fa:	50 e0       	ldi	r21, 0x00	; 0
    25fc:	ef 2d       	mov	r30, r15
    25fe:	f0 e0       	ldi	r31, 0x00	; 0

	/* 计算公历日离当年元旦的天数 */
	if (month<10) 	temp4=day_code1[month-1]+day-1;
    2600:	39 e0       	ldi	r19, 0x09	; 9
    2602:	3f 15       	cp	r19, r15
    2604:	68 f0       	brcs	.+26     	; 0x2620 <GetChinaCalendar+0xb2>
    2606:	2a 01       	movw	r4, r20
    2608:	08 94       	sec
    260a:	41 08       	sbc	r4, r1
    260c:	51 08       	sbc	r5, r1
    260e:	ee 5d       	subi	r30, 0xDE	; 222
    2610:	fc 4f       	sbci	r31, 0xFC	; 252
    2612:	80 81       	ld	r24, Z
    2614:	48 0e       	add	r4, r24
    2616:	51 1c       	adc	r5, r1
	else  			temp4=day_code2[month-10]+day-1;
	/* 如果公历月大于2月并且该年的2月为闰月,天数加1 */
	if ((month>2)&&(yearL%4==0)) 	temp4++;
    2618:	82 e0       	ldi	r24, 0x02	; 2
    261a:	8f 15       	cp	r24, r15
    261c:	b0 f4       	brcc	.+44     	; 0x264a <GetChinaCalendar+0xdc>
    261e:	0c c0       	rjmp	.+24     	; 0x2638 <GetChinaCalendar+0xca>
	if(temp1==1) 	temp3=temp2-1;
	else 			temp3=temp2+31-1;

	/* 计算公历日离当年元旦的天数 */
	if (month<10) 	temp4=day_code1[month-1]+day-1;
	else  			temp4=day_code2[month-10]+day-1;
    2620:	2a 01       	movw	r4, r20
    2622:	08 94       	sec
    2624:	41 08       	sbc	r4, r1
    2626:	51 08       	sbc	r5, r1
    2628:	ee 0f       	add	r30, r30
    262a:	ff 1f       	adc	r31, r31
    262c:	e8 5e       	subi	r30, 0xE8	; 232
    262e:	fc 4f       	sbci	r31, 0xFC	; 252
    2630:	80 81       	ld	r24, Z
    2632:	91 81       	ldd	r25, Z+1	; 0x01
    2634:	48 0e       	add	r4, r24
    2636:	59 1e       	adc	r5, r25
	/* 如果公历月大于2月并且该年的2月为闰月,天数加1 */
	if ((month>2)&&(yearL%4==0)) 	temp4++;
    2638:	89 2d       	mov	r24, r9
    263a:	90 e0       	ldi	r25, 0x00	; 0
    263c:	83 70       	andi	r24, 0x03	; 3
    263e:	90 70       	andi	r25, 0x00	; 0
    2640:	89 2b       	or	r24, r25
    2642:	19 f4       	brne	.+6      	; 0x264a <GetChinaCalendar+0xdc>
    2644:	08 94       	sec
    2646:	41 1c       	adc	r4, r1
    2648:	51 1c       	adc	r5, r1

	/* 判断公历日在春节前还是春节后 */
	if (temp4>=temp3)
    264a:	ed 2c       	mov	r14, r13
    264c:	ff 24       	eor	r15, r15
    264e:	4e 14       	cp	r4, r14
    2650:	5f 04       	cpc	r5, r15
    2652:	90 f1       	brcs	.+100    	; 0x26b8 <GetChinaCalendar+0x14a>
		temp4-=temp3;
		month=1;
		month_p=1;

		flag_y=0;
		if(GetMoonDay(month_p,table_addr)==0)	temp1=29; //小月29天
    2654:	81 e0       	ldi	r24, 0x01	; 1
    2656:	b8 01       	movw	r22, r16
    2658:	0e 94 32 12 	call	0x2464	; 0x2464 <GetMoonDay>
    265c:	88 23       	and	r24, r24
    265e:	11 f0       	breq	.+4      	; 0x2664 <GetChinaCalendar+0xf6>
    2660:	8e e1       	ldi	r24, 0x1E	; 30
    2662:	01 c0       	rjmp	.+2      	; 0x2666 <GetChinaCalendar+0xf8>
    2664:	8d e1       	ldi	r24, 0x1D	; 29
	if ((month>2)&&(yearL%4==0)) 	temp4++;

	/* 判断公历日在春节前还是春节后 */
	if (temp4>=temp3)
	{
		temp4-=temp3;
    2666:	4e 18       	sub	r4, r14
    2668:	5f 08       	sbc	r5, r15

		flag_y=0;
		if(GetMoonDay(month_p,table_addr)==0)	temp1=29; //小月29天
		else 									temp1=30; //大小30天
		/* 从数据表中取该年的闰月月份,如为0则该年无闰月 */
		temp2=pgm_read_byte(year_code+table_addr)/16;
    266a:	f8 01       	movw	r30, r16
    266c:	ec 5a       	subi	r30, 0xAC	; 172
    266e:	ff 4e       	sbci	r31, 0xEF	; 239
    2670:	d4 90       	lpm	r13, Z+
    2672:	d2 94       	swap	r13
    2674:	2f e0       	ldi	r18, 0x0F	; 15
    2676:	d2 22       	and	r13, r18
    2678:	91 e0       	ldi	r25, 0x01	; 1
    267a:	ee 24       	eor	r14, r14
    267c:	e3 94       	inc	r14
    267e:	ff 24       	eor	r15, r15
    2680:	13 c0       	rjmp	.+38     	; 0x26a8 <GetChinaCalendar+0x13a>
		while(temp4>=temp1)
		{
			temp4-=temp1;
			month_p++;
    2682:	e3 94       	inc	r14
			if(month==temp2)
    2684:	9d 15       	cp	r25, r13
    2686:	11 f4       	brne	.+4      	; 0x268c <GetChinaCalendar+0x11e>
			{
				flag_y=~flag_y;
    2688:	f0 94       	com	r15
				if(flag_y==0)month++;
    268a:	09 f4       	brne	.+2      	; 0x268e <GetChinaCalendar+0x120>
			}
			else month++;
    268c:	9f 5f       	subi	r25, 0xFF	; 255
			if(GetMoonDay(month_p,table_addr)==0)	temp1=29;
    268e:	8e 2d       	mov	r24, r14
    2690:	b8 01       	movw	r22, r16
    2692:	99 83       	std	Y+1, r25	; 0x01
    2694:	0e 94 32 12 	call	0x2464	; 0x2464 <GetMoonDay>
    2698:	99 81       	ldd	r25, Y+1	; 0x01
    269a:	88 23       	and	r24, r24
    269c:	11 f0       	breq	.+4      	; 0x26a2 <GetChinaCalendar+0x134>
    269e:	8e e1       	ldi	r24, 0x1E	; 30
    26a0:	01 c0       	rjmp	.+2      	; 0x26a4 <GetChinaCalendar+0x136>
    26a2:	8d e1       	ldi	r24, 0x1D	; 29
		else 									temp1=30; //大小30天
		/* 从数据表中取该年的闰月月份,如为0则该年无闰月 */
		temp2=pgm_read_byte(year_code+table_addr)/16;
		while(temp4>=temp1)
		{
			temp4-=temp1;
    26a4:	4a 18       	sub	r4, r10
    26a6:	5b 08       	sbc	r5, r11
		flag_y=0;
		if(GetMoonDay(month_p,table_addr)==0)	temp1=29; //小月29天
		else 									temp1=30; //大小30天
		/* 从数据表中取该年的闰月月份,如为0则该年无闰月 */
		temp2=pgm_read_byte(year_code+table_addr)/16;
		while(temp4>=temp1)
    26a8:	a8 2e       	mov	r10, r24
    26aa:	bb 24       	eor	r11, r11
    26ac:	4a 14       	cp	r4, r10
    26ae:	5b 04       	cpc	r5, r11
    26b0:	40 f7       	brcc	.-48     	; 0x2682 <GetChinaCalendar+0x114>
			}
			else month++;
			if(GetMoonDay(month_p,table_addr)==0)	temp1=29;
			else 									temp1=30;
		}
		day=temp4+1;
    26b2:	44 2d       	mov	r20, r4
    26b4:	4f 5f       	subi	r20, 0xFF	; 255
    26b6:	42 c0       	rjmp	.+132    	; 0x273c <GetChinaCalendar+0x1ce>
	}
	/* 公历日在春节前使用下面代码进行运算 */
	else
	{
		temp3-=temp4;
		if (yearL==0)
    26b8:	99 20       	and	r9, r9
    26ba:	29 f4       	brne	.+10     	; 0x26c6 <GetChinaCalendar+0x158>
    26bc:	93 e1       	ldi	r25, 0x13	; 19
    26be:	89 2e       	mov	r8, r25
    26c0:	83 e6       	ldi	r24, 0x63	; 99
    26c2:	98 2e       	mov	r9, r24
    26c4:	01 c0       	rjmp	.+2      	; 0x26c8 <GetChinaCalendar+0x15a>
		{
			yearL=100-1;
			yearH=19;
		}
		else yearL--;
    26c6:	9a 94       	dec	r9
		table_addr-=3;
    26c8:	bd ef       	ldi	r27, 0xFD	; 253
    26ca:	eb 2e       	mov	r14, r27
    26cc:	bf ef       	ldi	r27, 0xFF	; 255
    26ce:	fb 2e       	mov	r15, r27
    26d0:	e0 0e       	add	r14, r16
    26d2:	f1 1e       	adc	r15, r17
		month=12;
		temp2=pgm_read_byte(year_code+table_addr)/16;
    26d4:	f7 01       	movw	r30, r14
    26d6:	ec 5a       	subi	r30, 0xAC	; 172
    26d8:	ff 4e       	sbci	r31, 0xEF	; 239
    26da:	b4 90       	lpm	r11, Z+
    26dc:	b2 94       	swap	r11
    26de:	af e0       	ldi	r26, 0x0F	; 15
    26e0:	ba 22       	and	r11, r26
		if (temp2==0)	month_p=12;
    26e2:	19 f0       	breq	.+6      	; 0x26ea <GetChinaCalendar+0x17c>
    26e4:	fd e0       	ldi	r31, 0x0D	; 13
    26e6:	cf 2e       	mov	r12, r31
    26e8:	02 c0       	rjmp	.+4      	; 0x26ee <GetChinaCalendar+0x180>
    26ea:	ec e0       	ldi	r30, 0x0C	; 12
    26ec:	ce 2e       	mov	r12, r30
		else 			month_p=13;

		flag_y=0;
		if(GetMoonDay(month_p,table_addr)==0)	temp1=29;
    26ee:	8c 2d       	mov	r24, r12
    26f0:	b7 01       	movw	r22, r14
    26f2:	0e 94 32 12 	call	0x2464	; 0x2464 <GetMoonDay>
    26f6:	88 23       	and	r24, r24
    26f8:	11 f0       	breq	.+4      	; 0x26fe <GetChinaCalendar+0x190>
    26fa:	1e e1       	ldi	r17, 0x1E	; 30
    26fc:	01 c0       	rjmp	.+2      	; 0x2700 <GetChinaCalendar+0x192>
    26fe:	1d e1       	ldi	r17, 0x1D	; 29
		day=temp4+1;
	}
	/* 公历日在春节前使用下面代码进行运算 */
	else
	{
		temp3-=temp4;
    2700:	0d 2d       	mov	r16, r13
    2702:	04 19       	sub	r16, r4
    2704:	9c e0       	ldi	r25, 0x0C	; 12
    2706:	dd 24       	eor	r13, r13
    2708:	14 c0       	rjmp	.+40     	; 0x2732 <GetChinaCalendar+0x1c4>
		if(GetMoonDay(month_p,table_addr)==0)	temp1=29;
		else 									temp1=30;
		while(temp3>temp1)
		{
			temp3-=temp1;
			month_p--;
    270a:	ca 94       	dec	r12
			if(flag_y==0)		month--;
    270c:	dd 20       	and	r13, r13
    270e:	09 f4       	brne	.+2      	; 0x2712 <GetChinaCalendar+0x1a4>
    2710:	91 50       	subi	r25, 0x01	; 1
			if(month==temp2)	flag_y=~flag_y;
    2712:	9b 15       	cp	r25, r11
    2714:	09 f4       	brne	.+2      	; 0x2718 <GetChinaCalendar+0x1aa>
    2716:	d0 94       	com	r13
			if(GetMoonDay(month_p,table_addr)==0)	temp1=29;
    2718:	8c 2d       	mov	r24, r12
    271a:	b7 01       	movw	r22, r14
    271c:	99 83       	std	Y+1, r25	; 0x01
    271e:	0e 94 32 12 	call	0x2464	; 0x2464 <GetMoonDay>
    2722:	99 81       	ldd	r25, Y+1	; 0x01
    2724:	88 23       	and	r24, r24
    2726:	11 f0       	breq	.+4      	; 0x272c <GetChinaCalendar+0x1be>
    2728:	8e e1       	ldi	r24, 0x1E	; 30
    272a:	01 c0       	rjmp	.+2      	; 0x272e <GetChinaCalendar+0x1c0>
    272c:	8d e1       	ldi	r24, 0x1D	; 29
		flag_y=0;
		if(GetMoonDay(month_p,table_addr)==0)	temp1=29;
		else 									temp1=30;
		while(temp3>temp1)
		{
			temp3-=temp1;
    272e:	01 1b       	sub	r16, r17
    2730:	18 2f       	mov	r17, r24
		else 			month_p=13;

		flag_y=0;
		if(GetMoonDay(month_p,table_addr)==0)	temp1=29;
		else 									temp1=30;
		while(temp3>temp1)
    2732:	10 17       	cp	r17, r16
    2734:	50 f3       	brcs	.-44     	; 0x270a <GetChinaCalendar+0x19c>
			if(flag_y==0)		month--;
			if(month==temp2)	flag_y=~flag_y;
			if(GetMoonDay(month_p,table_addr)==0)	temp1=29;
			else 									temp1=30;
		}
		day=temp1-temp3+1;
    2736:	41 2f       	mov	r20, r17
    2738:	4f 5f       	subi	r20, 0xFF	; 255
    273a:	40 1b       	sub	r20, r16
	}

	*p++=yearH;
    273c:	f3 01       	movw	r30, r6
    273e:	81 92       	st	Z+, r8
	*p++=yearL;
    2740:	d3 01       	movw	r26, r6
    2742:	11 96       	adiw	r26, 0x01	; 1
    2744:	9c 92       	st	X, r9
	*p++=month;
    2746:	91 83       	std	Z+1, r25	; 0x01
	*p=day;
    2748:	42 83       	std	Z+2, r20	; 0x02
    274a:	81 e0       	ldi	r24, 0x01	; 1
	return(1);
}
    274c:	0f 90       	pop	r0
    274e:	cf 91       	pop	r28
    2750:	df 91       	pop	r29
    2752:	1f 91       	pop	r17
    2754:	0f 91       	pop	r16
    2756:	ff 90       	pop	r15
    2758:	ef 90       	pop	r14
    275a:	df 90       	pop	r13
    275c:	cf 90       	pop	r12
    275e:	bf 90       	pop	r11
    2760:	af 90       	pop	r10
    2762:	9f 90       	pop	r9
    2764:	8f 90       	pop	r8
    2766:	7f 90       	pop	r7
    2768:	6f 90       	pop	r6
    276a:	5f 90       	pop	r5
    276c:	4f 90       	pop	r4
    276e:	08 95       	ret

00002770 <GetWeek>:
void GetWeek(
			unsigned int year,
			unsigned char month,
			unsigned char day,
			unsigned char *p)
{
    2770:	ff 92       	push	r15
    2772:	0f 93       	push	r16
    2774:	1f 93       	push	r17
    2776:	cf 93       	push	r28
    2778:	df 93       	push	r29
    277a:	fc 01       	movw	r30, r24
    277c:	f6 2e       	mov	r15, r22
    277e:	e9 01       	movw	r28, r18
	unsigned int temp2;
	unsigned char yearH,yearL;

	yearH=year/100;	yearL=year%100;
    2780:	64 e6       	ldi	r22, 0x64	; 100
    2782:	70 e0       	ldi	r23, 0x00	; 0
    2784:	0e 94 ea 15 	call	0x2bd4	; 0x2bd4 <__udivmodhi4>
    2788:	28 2f       	mov	r18, r24

	/* 如果为21世纪,年份数加100 */
	if (yearH>19)	 	yearL+=100;
    278a:	cf 01       	movw	r24, r30
    278c:	64 e6       	ldi	r22, 0x64	; 100
    278e:	70 e0       	ldi	r23, 0x00	; 0
    2790:	0e 94 ea 15 	call	0x2bd4	; 0x2bd4 <__udivmodhi4>
    2794:	64 31       	cpi	r22, 0x14	; 20
    2796:	08 f0       	brcs	.+2      	; 0x279a <GetWeek+0x2a>
    2798:	2c 59       	subi	r18, 0x9C	; 156
	/* 所过闰年数只算1900年之后的 */
	temp2=yearL+yearL/4;
    279a:	02 2f       	mov	r16, r18
    279c:	10 e0       	ldi	r17, 0x00	; 0
    279e:	26 95       	lsr	r18
    27a0:	26 95       	lsr	r18
	temp2=temp2%7;
    27a2:	c8 01       	movw	r24, r16
    27a4:	82 0f       	add	r24, r18
    27a6:	91 1d       	adc	r25, r1
    27a8:	67 e0       	ldi	r22, 0x07	; 7
    27aa:	70 e0       	ldi	r23, 0x00	; 0
    27ac:	0e 94 ea 15 	call	0x2bd4	; 0x2bd4 <__udivmodhi4>
    27b0:	9c 01       	movw	r18, r24
	temp2=temp2+day+table_week[month-1];
    27b2:	ef 2d       	mov	r30, r15
    27b4:	f0 e0       	ldi	r31, 0x00	; 0
    27b6:	ea 5e       	subi	r30, 0xEA	; 234
    27b8:	fc 4f       	sbci	r31, 0xFC	; 252
    27ba:	80 81       	ld	r24, Z
    27bc:	50 e0       	ldi	r21, 0x00	; 0
    27be:	48 0f       	add	r20, r24
    27c0:	51 1d       	adc	r21, r1
    27c2:	42 0f       	add	r20, r18
    27c4:	53 1f       	adc	r21, r19
	if (yearL%4==0&&month<3)	temp2--;
    27c6:	03 70       	andi	r16, 0x03	; 3
    27c8:	10 70       	andi	r17, 0x00	; 0
    27ca:	01 2b       	or	r16, r17
    27cc:	29 f4       	brne	.+10     	; 0x27d8 <GetWeek+0x68>
    27ce:	82 e0       	ldi	r24, 0x02	; 2
    27d0:	8f 15       	cp	r24, r15
    27d2:	10 f0       	brcs	.+4      	; 0x27d8 <GetWeek+0x68>
    27d4:	41 50       	subi	r20, 0x01	; 1
    27d6:	50 40       	sbci	r21, 0x00	; 0
	*p=(temp2%7);
    27d8:	ca 01       	movw	r24, r20
    27da:	67 e0       	ldi	r22, 0x07	; 7
    27dc:	70 e0       	ldi	r23, 0x00	; 0
    27de:	0e 94 ea 15 	call	0x2bd4	; 0x2bd4 <__udivmodhi4>
    27e2:	88 83       	st	Y, r24
}
    27e4:	df 91       	pop	r29
    27e6:	cf 91       	pop	r28
    27e8:	1f 91       	pop	r17
    27ea:	0f 91       	pop	r16
    27ec:	ff 90       	pop	r15
    27ee:	08 95       	ret

000027f0 <GetChinaCalendarStr>:
void GetChinaCalendarStr(
								unsigned int  year,
								unsigned char month,
								unsigned char day,
								         char *str)
{
    27f0:	ef 92       	push	r14
    27f2:	ff 92       	push	r15
    27f4:	0f 93       	push	r16
    27f6:	1f 93       	push	r17
    27f8:	df 93       	push	r29
    27fa:	cf 93       	push	r28
    27fc:	00 d0       	rcall	.+0      	; 0x27fe <GetChinaCalendarStr+0xe>
    27fe:	00 d0       	rcall	.+0      	; 0x2800 <GetChinaCalendarStr+0x10>
    2800:	cd b7       	in	r28, 0x3d	; 61
    2802:	de b7       	in	r29, 0x3e	; 62
    2804:	7c 01       	movw	r14, r24
    2806:	89 01       	movw	r16, r18
    2808:	d9 01       	movw	r26, r18
    280a:	e2 e5       	ldi	r30, 0x52	; 82
    280c:	f1 e0       	ldi	r31, 0x01	; 1
{
	unsigned int i;

	for(i=0;i<no;i++)
	{
		*target++=*source++;
    280e:	81 91       	ld	r24, Z+
    2810:	8d 93       	st	X+, r24
static unsigned char const nongliday[][3]={"初","十","廿","三",};
static void StrCopy(char *target,unsigned char const *source,unsigned char no)
{
	unsigned int i;

	for(i=0;i<no;i++)
    2812:	81 e0       	ldi	r24, 0x01	; 1
    2814:	e1 36       	cpi	r30, 0x61	; 97
    2816:	f8 07       	cpc	r31, r24
    2818:	d1 f7       	brne	.-12     	; 0x280e <GetChinaCalendarStr+0x1e>
{
	unsigned char NLyear[4];
	unsigned char SEyear;

	StrCopy(&str[0],(unsigned char *)"甲子年正月初一",15);
	if(GetChinaCalendar(year,month,day,(unsigned char *)NLyear)==0)	return;
    281a:	c7 01       	movw	r24, r14
    281c:	9e 01       	movw	r18, r28
    281e:	2f 5f       	subi	r18, 0xFF	; 255
    2820:	3f 4f       	sbci	r19, 0xFF	; 255
    2822:	0e 94 b7 12 	call	0x256e	; 0x256e <GetChinaCalendar>
    2826:	88 23       	and	r24, r24
    2828:	09 f4       	brne	.+2      	; 0x282c <GetChinaCalendarStr+0x3c>
    282a:	8a c0       	rjmp	.+276    	; 0x2940 <GetChinaCalendarStr+0x150>
	GetSkyEarth(NLyear[0]*100+NLyear[1],&SEyear);
    282c:	89 81       	ldd	r24, Y+1	; 0x01
    282e:	94 e6       	ldi	r25, 0x64	; 100
    2830:	89 9f       	mul	r24, r25
    2832:	90 01       	movw	r18, r0
    2834:	11 24       	eor	r1, r1
    2836:	8a 81       	ldd	r24, Y+2	; 0x02
    2838:	28 0f       	add	r18, r24
    283a:	31 1d       	adc	r19, r1
********************************************************************************************************/
static void GetSkyEarth(unsigned int year,unsigned char *p)
{
	unsigned char x;

	if(year>=1984)
    283c:	a7 e0       	ldi	r26, 0x07	; 7
    283e:	20 3c       	cpi	r18, 0xC0	; 192
    2840:	3a 07       	cpc	r19, r26
    2842:	48 f0       	brcs	.+18     	; 0x2856 <GetChinaCalendarStr+0x66>
	{
		year=year-1984;
		x=year%60;
    2844:	c9 01       	movw	r24, r18
    2846:	80 5c       	subi	r24, 0xC0	; 192
    2848:	97 40       	sbci	r25, 0x07	; 7
    284a:	6c e3       	ldi	r22, 0x3C	; 60
    284c:	70 e0       	ldi	r23, 0x00	; 0
    284e:	0e 94 ea 15 	call	0x2bd4	; 0x2bd4 <__udivmodhi4>
    2852:	28 2f       	mov	r18, r24
    2854:	0a c0       	rjmp	.+20     	; 0x286a <GetChinaCalendarStr+0x7a>
	}
	else
	{
		year=1984-year;
		x=60-year%60;
    2856:	80 ec       	ldi	r24, 0xC0	; 192
    2858:	97 e0       	ldi	r25, 0x07	; 7
    285a:	82 1b       	sub	r24, r18
    285c:	93 0b       	sbc	r25, r19
    285e:	6c e3       	ldi	r22, 0x3C	; 60
    2860:	70 e0       	ldi	r23, 0x00	; 0
    2862:	0e 94 ea 15 	call	0x2bd4	; 0x2bd4 <__udivmodhi4>
    2866:	2c e3       	ldi	r18, 0x3C	; 60
    2868:	28 1b       	sub	r18, r24
	unsigned char SEyear;

	StrCopy(&str[0],(unsigned char *)"甲子年正月初一",15);
	if(GetChinaCalendar(year,month,day,(unsigned char *)NLyear)==0)	return;
	GetSkyEarth(NLyear[0]*100+NLyear[1],&SEyear);
	StrCopy(&str[0],(unsigned char *)  sky[SEyear%10],2);	//  甲
    286a:	82 2f       	mov	r24, r18
    286c:	6a e0       	ldi	r22, 0x0A	; 10
    286e:	0e 94 d1 15 	call	0x2ba2	; 0x2ba2 <__udivmodqi4>
    2872:	33 e0       	ldi	r19, 0x03	; 3
    2874:	93 9f       	mul	r25, r19
    2876:	f0 01       	movw	r30, r0
    2878:	11 24       	eor	r1, r1
    287a:	eb 55       	subi	r30, 0x5B	; 91
    287c:	fd 4f       	sbci	r31, 0xFD	; 253
{
	unsigned int i;

	for(i=0;i<no;i++)
	{
		*target++=*source++;
    287e:	80 81       	ld	r24, Z
    2880:	d8 01       	movw	r26, r16
    2882:	8c 93       	st	X, r24
    2884:	81 81       	ldd	r24, Z+1	; 0x01
    2886:	11 96       	adiw	r26, 0x01	; 1
    2888:	8c 93       	st	X, r24
    288a:	11 97       	sbiw	r26, 0x01	; 1

	StrCopy(&str[0],(unsigned char *)"甲子年正月初一",15);
	if(GetChinaCalendar(year,month,day,(unsigned char *)NLyear)==0)	return;
	GetSkyEarth(NLyear[0]*100+NLyear[1],&SEyear);
	StrCopy(&str[0],(unsigned char *)  sky[SEyear%10],2);	//  甲
	StrCopy(&str[2],(unsigned char *)earth[SEyear%12],2);	//  子
    288c:	82 2f       	mov	r24, r18
    288e:	6c e0       	ldi	r22, 0x0C	; 12
    2890:	0e 94 d1 15 	call	0x2ba2	; 0x2ba2 <__udivmodqi4>
    2894:	93 9f       	mul	r25, r19
    2896:	f0 01       	movw	r30, r0
    2898:	11 24       	eor	r1, r1
    289a:	ed 53       	subi	r30, 0x3D	; 61
    289c:	fd 4f       	sbci	r31, 0xFD	; 253
{
	unsigned int i;

	for(i=0;i<no;i++)
	{
		*target++=*source++;
    289e:	80 81       	ld	r24, Z
    28a0:	12 96       	adiw	r26, 0x02	; 2
    28a2:	8c 93       	st	X, r24
    28a4:	12 97       	sbiw	r26, 0x02	; 2
    28a6:	81 81       	ldd	r24, Z+1	; 0x01
    28a8:	13 96       	adiw	r26, 0x03	; 3
    28aa:	8c 93       	st	X, r24
    28ac:	13 97       	sbiw	r26, 0x03	; 3
	if(GetChinaCalendar(year,month,day,(unsigned char *)NLyear)==0)	return;
	GetSkyEarth(NLyear[0]*100+NLyear[1],&SEyear);
	StrCopy(&str[0],(unsigned char *)  sky[SEyear%10],2);	//  甲
	StrCopy(&str[2],(unsigned char *)earth[SEyear%12],2);	//  子

	if(NLyear[2]==1)	StrCopy(&str[6],(unsigned char *)"正",2);
    28ae:	8b 81       	ldd	r24, Y+3	; 0x03
    28b0:	a8 01       	movw	r20, r16
    28b2:	4a 5f       	subi	r20, 0xFA	; 250
    28b4:	5f 4f       	sbci	r21, 0xFF	; 255
    28b6:	81 30       	cpi	r24, 0x01	; 1
    28b8:	29 f4       	brne	.+10     	; 0x28c4 <GetChinaCalendarStr+0xd4>
{
	unsigned int i;

	for(i=0;i<no;i++)
	{
		*target++=*source++;
    28ba:	85 ed       	ldi	r24, 0xD5	; 213
    28bc:	16 96       	adiw	r26, 0x06	; 6
    28be:	8c 93       	st	X, r24
    28c0:	8d ef       	ldi	r24, 0xFD	; 253
    28c2:	0a c0       	rjmp	.+20     	; 0x28d8 <GetChinaCalendarStr+0xe8>
	GetSkyEarth(NLyear[0]*100+NLyear[1],&SEyear);
	StrCopy(&str[0],(unsigned char *)  sky[SEyear%10],2);	//  甲
	StrCopy(&str[2],(unsigned char *)earth[SEyear%12],2);	//  子

	if(NLyear[2]==1)	StrCopy(&str[6],(unsigned char *)"正",2);
	else				StrCopy(&str[6],(unsigned char *)monthcode[NLyear[2]-1],2);
    28c4:	83 9f       	mul	r24, r19
    28c6:	f0 01       	movw	r30, r0
    28c8:	11 24       	eor	r1, r1
    28ca:	ec 51       	subi	r30, 0x1C	; 28
    28cc:	fd 4f       	sbci	r31, 0xFD	; 253
{
	unsigned int i;

	for(i=0;i<no;i++)
	{
		*target++=*source++;
    28ce:	80 81       	ld	r24, Z
    28d0:	d8 01       	movw	r26, r16
    28d2:	16 96       	adiw	r26, 0x06	; 6
    28d4:	8c 93       	st	X, r24
    28d6:	81 81       	ldd	r24, Z+1	; 0x01
    28d8:	fa 01       	movw	r30, r20
    28da:	81 83       	std	Z+1, r24	; 0x01
	StrCopy(&str[2],(unsigned char *)earth[SEyear%12],2);	//  子

	if(NLyear[2]==1)	StrCopy(&str[6],(unsigned char *)"正",2);
	else				StrCopy(&str[6],(unsigned char *)monthcode[NLyear[2]-1],2);

	if(NLyear[3]>10) 	StrCopy(&str[10],(unsigned char *)nongliday[NLyear[3]/10],2);
    28dc:	8c 81       	ldd	r24, Y+4	; 0x04
    28de:	98 01       	movw	r18, r16
    28e0:	26 5f       	subi	r18, 0xF6	; 246
    28e2:	3f 4f       	sbci	r19, 0xFF	; 255
    28e4:	8b 30       	cpi	r24, 0x0B	; 11
    28e6:	78 f0       	brcs	.+30     	; 0x2906 <GetChinaCalendarStr+0x116>
    28e8:	6a e0       	ldi	r22, 0x0A	; 10
    28ea:	0e 94 d1 15 	call	0x2ba2	; 0x2ba2 <__udivmodqi4>
    28ee:	93 e0       	ldi	r25, 0x03	; 3
    28f0:	89 9f       	mul	r24, r25
    28f2:	f0 01       	movw	r30, r0
    28f4:	11 24       	eor	r1, r1
    28f6:	e5 5f       	subi	r30, 0xF5	; 245
    28f8:	fc 4f       	sbci	r31, 0xFC	; 252
{
	unsigned int i;

	for(i=0;i<no;i++)
	{
		*target++=*source++;
    28fa:	80 81       	ld	r24, Z
    28fc:	d8 01       	movw	r26, r16
    28fe:	1a 96       	adiw	r26, 0x0a	; 10
    2900:	8c 93       	st	X, r24
    2902:	81 81       	ldd	r24, Z+1	; 0x01
    2904:	05 c0       	rjmp	.+10     	; 0x2910 <GetChinaCalendarStr+0x120>
	if(NLyear[2]==1)	StrCopy(&str[6],(unsigned char *)"正",2);
	else				StrCopy(&str[6],(unsigned char *)monthcode[NLyear[2]-1],2);

	if(NLyear[3]>10) 	StrCopy(&str[10],(unsigned char *)nongliday[NLyear[3]/10],2);
	else				StrCopy(&str[10],(unsigned char *)"初",2);
	StrCopy(&str[12],(unsigned char *)monthcode[(NLyear[3]-1)%10],2);
    2906:	83 eb       	ldi	r24, 0xB3	; 179
    2908:	d8 01       	movw	r26, r16
    290a:	1a 96       	adiw	r26, 0x0a	; 10
    290c:	8c 93       	st	X, r24
    290e:	85 ef       	ldi	r24, 0xF5	; 245
    2910:	f9 01       	movw	r30, r18
    2912:	81 83       	std	Z+1, r24	; 0x01
    2914:	8c 81       	ldd	r24, Y+4	; 0x04
    2916:	90 e0       	ldi	r25, 0x00	; 0
    2918:	01 97       	sbiw	r24, 0x01	; 1
    291a:	6a e0       	ldi	r22, 0x0A	; 10
    291c:	70 e0       	ldi	r23, 0x00	; 0
    291e:	0e 94 fe 15 	call	0x2bfc	; 0x2bfc <__divmodhi4>
    2922:	fc 01       	movw	r30, r24
    2924:	ee 0f       	add	r30, r30
    2926:	ff 1f       	adc	r31, r31
    2928:	e8 0f       	add	r30, r24
    292a:	f9 1f       	adc	r31, r25
    292c:	e9 51       	subi	r30, 0x19	; 25
    292e:	fd 4f       	sbci	r31, 0xFD	; 253
{
	unsigned int i;

	for(i=0;i<no;i++)
	{
		*target++=*source++;
    2930:	80 81       	ld	r24, Z
    2932:	d8 01       	movw	r26, r16
    2934:	1c 96       	adiw	r26, 0x0c	; 12
    2936:	8c 93       	st	X, r24
    2938:	1c 97       	sbiw	r26, 0x0c	; 12
    293a:	81 81       	ldd	r24, Z+1	; 0x01
    293c:	1d 96       	adiw	r26, 0x0d	; 13
    293e:	8c 93       	st	X, r24
	else				StrCopy(&str[6],(unsigned char *)monthcode[NLyear[2]-1],2);

	if(NLyear[3]>10) 	StrCopy(&str[10],(unsigned char *)nongliday[NLyear[3]/10],2);
	else				StrCopy(&str[10],(unsigned char *)"初",2);
	StrCopy(&str[12],(unsigned char *)monthcode[(NLyear[3]-1)%10],2);
}
    2940:	0f 90       	pop	r0
    2942:	0f 90       	pop	r0
    2944:	0f 90       	pop	r0
    2946:	0f 90       	pop	r0
    2948:	cf 91       	pop	r28
    294a:	df 91       	pop	r29
    294c:	1f 91       	pop	r17
    294e:	0f 91       	pop	r16
    2950:	ff 90       	pop	r15
    2952:	ef 90       	pop	r14
    2954:	08 95       	ret

00002956 <GetJieQi>:
unsigned char GetJieQi(
			unsigned  int year,
			unsigned char month,
			unsigned char day,
			unsigned char *JQdate)
{
    2956:	cf 93       	push	r28
    2958:	df 93       	push	r29
    295a:	ec 01       	movw	r28, r24
    295c:	74 2f       	mov	r23, r20
    295e:	a9 01       	movw	r20, r18
	unsigned char bak1,value,JQ;

	if((year<2000)||(year>2050))     return 0;
    2960:	80 5d       	subi	r24, 0xD0	; 208
    2962:	97 40       	sbci	r25, 0x07	; 7
    2964:	c3 97       	sbiw	r24, 0x33	; 51
    2966:	08 f0       	brcs	.+2      	; 0x296a <GetJieQi+0x14>
    2968:	3d c0       	rjmp	.+122    	; 0x29e4 <GetJieQi+0x8e>
	if((month==0) ||(month>12))      return 0;
    296a:	86 2f       	mov	r24, r22
    296c:	81 50       	subi	r24, 0x01	; 1
    296e:	8c 30       	cpi	r24, 0x0C	; 12
    2970:	c8 f5       	brcc	.+114    	; 0x29e4 <GetJieQi+0x8e>
	JQ = (month-1) *2 ;		                        //获得节气顺序标号(0～23
    2972:	66 0f       	add	r22, r22
    2974:	62 50       	subi	r22, 0x02	; 2
	if(day >= 15) JQ++; 	                        //判断是否是上半月
    2976:	7f 30       	cpi	r23, 0x0F	; 15
    2978:	08 f0       	brcs	.+2      	; 0x297c <GetJieQi+0x26>
    297a:	6f 5f       	subi	r22, 0xFF	; 255

	bak1=YearMonthBit[(year-2000)*3+JQ/8];          //获得节气日期相对值所在字节
	value =((bak1<<(JQ%8))&0x80);                   //获得节气日期相对值状态
    297c:	a6 2f       	mov	r26, r22
    297e:	b0 e0       	ldi	r27, 0x00	; 0
    2980:	86 2f       	mov	r24, r22
    2982:	86 95       	lsr	r24
    2984:	86 95       	lsr	r24
    2986:	86 95       	lsr	r24
    2988:	fe 01       	movw	r30, r28
    298a:	ee 0f       	add	r30, r30
    298c:	ff 1f       	adc	r31, r31
    298e:	ec 0f       	add	r30, r28
    2990:	fd 1f       	adc	r31, r29
    2992:	ec 50       	subi	r30, 0x0C	; 12
    2994:	fe 4f       	sbci	r31, 0xFE	; 254
    2996:	e8 0f       	add	r30, r24
    2998:	f1 1d       	adc	r31, r1
    299a:	e0 57       	subi	r30, 0x70	; 112
    299c:	f7 41       	sbci	r31, 0x17	; 23
    299e:	20 81       	ld	r18, Z
    29a0:	30 e0       	ldi	r19, 0x00	; 0
    29a2:	cd 01       	movw	r24, r26
    29a4:	87 70       	andi	r24, 0x07	; 7
    29a6:	90 70       	andi	r25, 0x00	; 0
    29a8:	02 c0       	rjmp	.+4      	; 0x29ae <GetJieQi+0x58>
    29aa:	22 0f       	add	r18, r18
    29ac:	33 1f       	adc	r19, r19
    29ae:	8a 95       	dec	r24
    29b0:	e2 f7       	brpl	.-8      	; 0x29aa <GetJieQi+0x54>

	*JQdate=days[JQ];
    29b2:	a3 57       	subi	r26, 0x73	; 115
    29b4:	bd 4f       	sbci	r27, 0xFD	; 253
    29b6:	ac 91       	ld	r26, X
    29b8:	fa 01       	movw	r30, r20
    29ba:	a0 83       	st	Z, r26
	if( value != 0 )
    29bc:	27 ff       	sbrs	r18, 7
    29be:	0e c0       	rjmp	.+28     	; 0x29dc <GetJieQi+0x86>
	{
		//判断年份,以决定节气相对值1代表1,还是－1。
		if( (JQ== 1||JQ== 11||JQ== 18||JQ== 21)&&year< 2044)  (*JQdate)++;
    29c0:	61 30       	cpi	r22, 0x01	; 1
    29c2:	31 f0       	breq	.+12     	; 0x29d0 <GetJieQi+0x7a>
    29c4:	6b 30       	cpi	r22, 0x0B	; 11
    29c6:	21 f0       	breq	.+8      	; 0x29d0 <GetJieQi+0x7a>
    29c8:	62 31       	cpi	r22, 0x12	; 18
    29ca:	11 f0       	breq	.+4      	; 0x29d0 <GetJieQi+0x7a>
    29cc:	65 31       	cpi	r22, 0x15	; 21
    29ce:	41 f4       	brne	.+16     	; 0x29e0 <GetJieQi+0x8a>
    29d0:	cc 5f       	subi	r28, 0xFC	; 252
    29d2:	d7 40       	sbci	r29, 0x07	; 7
    29d4:	28 f4       	brcc	.+10     	; 0x29e0 <GetJieQi+0x8a>
    29d6:	af 5f       	subi	r26, 0xFF	; 255
    29d8:	fa 01       	movw	r30, r20
    29da:	a0 83       	st	Z, r26
    29dc:	81 e0       	ldi	r24, 0x01	; 1
    29de:	03 c0       	rjmp	.+6      	; 0x29e6 <GetJieQi+0x90>
		else                                                  (*JQdate)--;
    29e0:	a1 50       	subi	r26, 0x01	; 1
    29e2:	fa cf       	rjmp	.-12     	; 0x29d8 <GetJieQi+0x82>
    29e4:	80 e0       	ldi	r24, 0x00	; 0
	}
	return 1;
}
    29e6:	df 91       	pop	r29
    29e8:	cf 91       	pop	r28
    29ea:	08 95       	ret

000029ec <GetJieQiStr>:
unsigned char GetJieQiStr(
			unsigned int year,
			unsigned char month,
			unsigned char day,
			         char *str)
{
    29ec:	bf 92       	push	r11
    29ee:	cf 92       	push	r12
    29f0:	df 92       	push	r13
    29f2:	ef 92       	push	r14
    29f4:	ff 92       	push	r15
    29f6:	0f 93       	push	r16
    29f8:	1f 93       	push	r17
    29fa:	df 93       	push	r29
    29fc:	cf 93       	push	r28
    29fe:	0f 92       	push	r0
    2a00:	cd b7       	in	r28, 0x3d	; 61
    2a02:	de b7       	in	r29, 0x3e	; 62
    2a04:	7c 01       	movw	r14, r24
    2a06:	b6 2e       	mov	r11, r22
    2a08:	d4 2e       	mov	r13, r20
    2a0a:	89 01       	movw	r16, r18
	unsigned char i,JQdate,JQ,MaxDay;

	if(GetJieQi(year,month,day,&JQdate)==0)	return 0;
    2a0c:	9e 01       	movw	r18, r28
    2a0e:	2f 5f       	subi	r18, 0xFF	; 255
    2a10:	3f 4f       	sbci	r19, 0xFF	; 255
    2a12:	0e 94 ab 14 	call	0x2956	; 0x2956 <GetJieQi>
    2a16:	88 23       	and	r24, r24
    2a18:	09 f4       	brne	.+2      	; 0x2a1c <GetJieQiStr+0x30>
    2a1a:	b8 c0       	rjmp	.+368    	; 0x2b8c <GetJieQiStr+0x1a0>

	JQ = (month-1) *2 ;                             //获得节气顺序标号(0～23
    2a1c:	2b 2d       	mov	r18, r11
    2a1e:	30 e0       	ldi	r19, 0x00	; 0
    2a20:	21 50       	subi	r18, 0x01	; 1
    2a22:	30 40       	sbci	r19, 0x00	; 0
    2a24:	92 2f       	mov	r25, r18
    2a26:	99 0f       	add	r25, r25
	if(day >= 15) JQ++;                             //判断是否是上半月
    2a28:	8e e0       	ldi	r24, 0x0E	; 14
    2a2a:	8d 15       	cp	r24, r13
    2a2c:	08 f4       	brcc	.+2      	; 0x2a30 <GetJieQiStr+0x44>
    2a2e:	9f 5f       	subi	r25, 0xFF	; 255

	if(day==JQdate)                                 //今天正是一个节气日
    2a30:	89 81       	ldd	r24, Y+1	; 0x01
    2a32:	d8 16       	cp	r13, r24
    2a34:	e1 f4       	brne	.+56     	; 0x2a6e <GetJieQiStr+0x82>
	{
		StrCopy(str,(unsigned char *)JieQiStr[JQ],5);
    2a36:	85 e0       	ldi	r24, 0x05	; 5
    2a38:	98 9f       	mul	r25, r24
    2a3a:	f0 01       	movw	r30, r0
    2a3c:	11 24       	eor	r1, r1
    2a3e:	e0 59       	subi	r30, 0x90	; 144
    2a40:	fe 4f       	sbci	r31, 0xFE	; 254
    2a42:	d8 01       	movw	r26, r16
    2a44:	20 e0       	ldi	r18, 0x00	; 0
    2a46:	30 e0       	ldi	r19, 0x00	; 0
{
	unsigned int i;

	for(i=0;i<no;i++)
	{
		*target++=*source++;
    2a48:	81 91       	ld	r24, Z+
    2a4a:	8d 93       	st	X+, r24
static unsigned char const nongliday[][3]={"初","十","廿","三",};
static void StrCopy(char *target,unsigned char const *source,unsigned char no)
{
	unsigned int i;

	for(i=0;i<no;i++)
    2a4c:	2f 5f       	subi	r18, 0xFF	; 255
    2a4e:	3f 4f       	sbci	r19, 0xFF	; 255
    2a50:	25 30       	cpi	r18, 0x05	; 5
    2a52:	31 05       	cpc	r19, r1
    2a54:	c9 f7       	brne	.-14     	; 0x2a48 <GetJieQiStr+0x5c>
    2a56:	f8 01       	movw	r30, r16
    2a58:	84 e0       	ldi	r24, 0x04	; 4

	if(day==JQdate)                                 //今天正是一个节气日
	{
		StrCopy(str,(unsigned char *)JieQiStr[JQ],5);
		for(i=4;i<14;i++)
			str[i]=' ';
    2a5a:	90 e2       	ldi	r25, 0x20	; 32
    2a5c:	94 83       	std	Z+4, r25	; 0x04
	if(day >= 15) JQ++;                             //判断是否是上半月

	if(day==JQdate)                                 //今天正是一个节气日
	{
		StrCopy(str,(unsigned char *)JieQiStr[JQ],5);
		for(i=4;i<14;i++)
    2a5e:	8f 5f       	subi	r24, 0xFF	; 255
    2a60:	31 96       	adiw	r30, 0x01	; 1
    2a62:	8e 30       	cpi	r24, 0x0E	; 14
    2a64:	d9 f7       	brne	.-10     	; 0x2a5c <GetJieQiStr+0x70>
			str[i]=' ';
		str[15]=0;
    2a66:	d8 01       	movw	r26, r16
    2a68:	1f 96       	adiw	r26, 0x0f	; 15
    2a6a:	1c 92       	st	X, r1
    2a6c:	8e c0       	rjmp	.+284    	; 0x2b8a <GetJieQiStr+0x19e>
		return 1;
    2a6e:	d8 01       	movw	r26, r16
    2a70:	e1 e6       	ldi	r30, 0x61	; 97
    2a72:	f1 e0       	ldi	r31, 0x01	; 1
{
	unsigned int i;

	for(i=0;i<no;i++)
	{
		*target++=*source++;
    2a74:	81 91       	ld	r24, Z+
    2a76:	8d 93       	st	X+, r24
static unsigned char const nongliday[][3]={"初","十","廿","三",};
static void StrCopy(char *target,unsigned char const *source,unsigned char no)
{
	unsigned int i;

	for(i=0;i<no;i++)
    2a78:	81 e0       	ldi	r24, 0x01	; 1
    2a7a:	e0 37       	cpi	r30, 0x70	; 112
    2a7c:	f8 07       	cpc	r31, r24
    2a7e:	d1 f7       	brne	.-12     	; 0x2a74 <GetJieQiStr+0x88>
		str[15]=0;
		return 1;
	}
	                                                //今天不是一个节气日
	StrCopy(str,(unsigned char *)"离小寒还有??天",15);
	if(day<JQdate)                                  //如果今天日期小于本月的节气日期
    2a80:	69 81       	ldd	r22, Y+1	; 0x01
    2a82:	a8 01       	movw	r20, r16
    2a84:	4c 5f       	subi	r20, 0xFC	; 252
    2a86:	5f 4f       	sbci	r21, 0xFF	; 255
    2a88:	d6 16       	cp	r13, r22
    2a8a:	c8 f4       	brcc	.+50     	; 0x2abe <GetJieQiStr+0xd2>
	{
		StrCopy(&str[2],(unsigned char *)JieQiStr[JQ],4);
    2a8c:	e5 e0       	ldi	r30, 0x05	; 5
    2a8e:	9e 9f       	mul	r25, r30
    2a90:	90 01       	movw	r18, r0
    2a92:	11 24       	eor	r1, r1
    2a94:	20 59       	subi	r18, 0x90	; 144
    2a96:	3e 4f       	sbci	r19, 0xFE	; 254
{
	unsigned int i;

	for(i=0;i<no;i++)
	{
		*target++=*source++;
    2a98:	d9 01       	movw	r26, r18
    2a9a:	8d 91       	ld	r24, X+
    2a9c:	f8 01       	movw	r30, r16
    2a9e:	82 83       	std	Z+2, r24	; 0x02
    2aa0:	f9 01       	movw	r30, r18
    2aa2:	81 81       	ldd	r24, Z+1	; 0x01
    2aa4:	f8 01       	movw	r30, r16
    2aa6:	83 83       	std	Z+3, r24	; 0x03
    2aa8:	11 96       	adiw	r26, 0x01	; 1
    2aaa:	8c 91       	ld	r24, X
    2aac:	11 97       	sbiw	r26, 0x01	; 1
    2aae:	84 83       	std	Z+4, r24	; 0x04
    2ab0:	12 96       	adiw	r26, 0x02	; 2
    2ab2:	8c 91       	ld	r24, X
    2ab4:	da 01       	movw	r26, r20
    2ab6:	11 96       	adiw	r26, 0x01	; 1
    2ab8:	8c 93       	st	X, r24
	                                                //今天不是一个节气日
	StrCopy(str,(unsigned char *)"离小寒还有??天",15);
	if(day<JQdate)                                  //如果今天日期小于本月的节气日期
	{
		StrCopy(&str[2],(unsigned char *)JieQiStr[JQ],4);
		day=JQdate-day;
    2aba:	26 2f       	mov	r18, r22
    2abc:	2b c0       	rjmp	.+86     	; 0x2b14 <GetJieQiStr+0x128>
	}
	else                                            //如果今天日期大于本月的节气日期
	{
		StrCopy(&str[2],(unsigned char *)JieQiStr[JQ+1],4);
    2abe:	89 2f       	mov	r24, r25
    2ac0:	90 e0       	ldi	r25, 0x00	; 0
    2ac2:	01 96       	adiw	r24, 0x01	; 1
    2ac4:	fc 01       	movw	r30, r24
    2ac6:	ee 0f       	add	r30, r30
    2ac8:	ff 1f       	adc	r31, r31
    2aca:	ee 0f       	add	r30, r30
    2acc:	ff 1f       	adc	r31, r31
    2ace:	e8 0f       	add	r30, r24
    2ad0:	f9 1f       	adc	r31, r25
    2ad2:	e0 59       	subi	r30, 0x90	; 144
    2ad4:	fe 4f       	sbci	r31, 0xFE	; 254
{
	unsigned int i;

	for(i=0;i<no;i++)
	{
		*target++=*source++;
    2ad6:	df 01       	movw	r26, r30
    2ad8:	8d 91       	ld	r24, X+
    2ada:	bd 01       	movw	r22, r26
    2adc:	d8 01       	movw	r26, r16
    2ade:	12 96       	adiw	r26, 0x02	; 2
    2ae0:	8c 93       	st	X, r24
    2ae2:	12 97       	sbiw	r26, 0x02	; 2
    2ae4:	81 81       	ldd	r24, Z+1	; 0x01
    2ae6:	13 96       	adiw	r26, 0x03	; 3
    2ae8:	8c 93       	st	X, r24
    2aea:	13 97       	sbiw	r26, 0x03	; 3
    2aec:	fb 01       	movw	r30, r22
    2aee:	81 81       	ldd	r24, Z+1	; 0x01
    2af0:	14 96       	adiw	r26, 0x04	; 4
    2af2:	8c 93       	st	X, r24
    2af4:	82 81       	ldd	r24, Z+2	; 0x02
    2af6:	da 01       	movw	r26, r20
    2af8:	11 96       	adiw	r26, 0x01	; 1
    2afa:	8c 93       	st	X, r24
		day=JQdate-day;
	}
	else                                            //如果今天日期大于本月的节气日期
	{
		StrCopy(&str[2],(unsigned char *)JieQiStr[JQ+1],4);
		if(day < 15)
    2afc:	be e0       	ldi	r27, 0x0E	; 14
    2afe:	bd 15       	cp	r27, r13
    2b00:	58 f0       	brcs	.+22     	; 0x2b18 <GetJieQiStr+0x12c>
		{
			GetJieQi(year,month,15,&JQdate);
    2b02:	c7 01       	movw	r24, r14
    2b04:	6b 2d       	mov	r22, r11
    2b06:	4f e0       	ldi	r20, 0x0F	; 15
    2b08:	9e 01       	movw	r18, r28
    2b0a:	2f 5f       	subi	r18, 0xFF	; 255
    2b0c:	3f 4f       	sbci	r19, 0xFF	; 255
    2b0e:	0e 94 ab 14 	call	0x2956	; 0x2956 <GetJieQi>
			day=JQdate-day;
    2b12:	29 81       	ldd	r18, Y+1	; 0x01
    2b14:	2d 19       	sub	r18, r13
    2b16:	2a c0       	rjmp	.+84     	; 0x2b6c <GetJieQiStr+0x180>
		}
		else                                        //翻月
		{
			MaxDay=MonthDayMax[month-1];
    2b18:	28 51       	subi	r18, 0x18	; 24
    2b1a:	3e 4f       	sbci	r19, 0xFE	; 254
    2b1c:	f9 01       	movw	r30, r18
    2b1e:	c0 80       	ld	r12, Z
			if(month==2)                            //润月问题
    2b20:	f2 e0       	ldi	r31, 0x02	; 2
    2b22:	bf 16       	cp	r11, r31
    2b24:	a1 f4       	brne	.+40     	; 0x2b4e <GetJieQiStr+0x162>
			{
				if((year%4==0)&&((year%100!=0)||(year%400==0))) MaxDay++;
    2b26:	c7 01       	movw	r24, r14
    2b28:	83 70       	andi	r24, 0x03	; 3
    2b2a:	90 70       	andi	r25, 0x00	; 0
    2b2c:	89 2b       	or	r24, r25
    2b2e:	79 f4       	brne	.+30     	; 0x2b4e <GetJieQiStr+0x162>
    2b30:	c7 01       	movw	r24, r14
    2b32:	64 e6       	ldi	r22, 0x64	; 100
    2b34:	70 e0       	ldi	r23, 0x00	; 0
    2b36:	0e 94 ea 15 	call	0x2bd4	; 0x2bd4 <__udivmodhi4>
    2b3a:	89 2b       	or	r24, r25
    2b3c:	39 f4       	brne	.+14     	; 0x2b4c <GetJieQiStr+0x160>
    2b3e:	c7 01       	movw	r24, r14
    2b40:	60 e9       	ldi	r22, 0x90	; 144
    2b42:	71 e0       	ldi	r23, 0x01	; 1
    2b44:	0e 94 ea 15 	call	0x2bd4	; 0x2bd4 <__udivmodhi4>
    2b48:	89 2b       	or	r24, r25
    2b4a:	09 f4       	brne	.+2      	; 0x2b4e <GetJieQiStr+0x162>
    2b4c:	c3 94       	inc	r12
			}
			if(++month==13)	month=1;
    2b4e:	6b 2d       	mov	r22, r11
    2b50:	6f 5f       	subi	r22, 0xFF	; 255
    2b52:	6d 30       	cpi	r22, 0x0D	; 13
    2b54:	09 f4       	brne	.+2      	; 0x2b58 <GetJieQiStr+0x16c>
    2b56:	61 e0       	ldi	r22, 0x01	; 1
			GetJieQi(year,month,1,&JQdate);
    2b58:	c7 01       	movw	r24, r14
    2b5a:	41 e0       	ldi	r20, 0x01	; 1
    2b5c:	9e 01       	movw	r18, r28
    2b5e:	2f 5f       	subi	r18, 0xFF	; 255
    2b60:	3f 4f       	sbci	r19, 0xFF	; 255
    2b62:	0e 94 ab 14 	call	0x2956	; 0x2956 <GetJieQi>
			day=MaxDay-day+JQdate;
    2b66:	29 81       	ldd	r18, Y+1	; 0x01
    2b68:	2d 19       	sub	r18, r13
    2b6a:	2c 0d       	add	r18, r12
		}
	}
	str[10]=day/10+'0';
    2b6c:	82 2f       	mov	r24, r18
    2b6e:	6a e0       	ldi	r22, 0x0A	; 10
    2b70:	0e 94 d1 15 	call	0x2ba2	; 0x2ba2 <__udivmodqi4>
    2b74:	80 5d       	subi	r24, 0xD0	; 208
    2b76:	d8 01       	movw	r26, r16
    2b78:	1a 96       	adiw	r26, 0x0a	; 10
    2b7a:	8c 93       	st	X, r24
    2b7c:	1a 97       	sbiw	r26, 0x0a	; 10
	str[11]=day%10+'0';
    2b7e:	82 2f       	mov	r24, r18
    2b80:	0e 94 d1 15 	call	0x2ba2	; 0x2ba2 <__udivmodqi4>
    2b84:	90 5d       	subi	r25, 0xD0	; 208
    2b86:	1b 96       	adiw	r26, 0x0b	; 11
    2b88:	9c 93       	st	X, r25
    2b8a:	81 e0       	ldi	r24, 0x01	; 1
	return 1;
}
    2b8c:	0f 90       	pop	r0
    2b8e:	cf 91       	pop	r28
    2b90:	df 91       	pop	r29
    2b92:	1f 91       	pop	r17
    2b94:	0f 91       	pop	r16
    2b96:	ff 90       	pop	r15
    2b98:	ef 90       	pop	r14
    2b9a:	df 90       	pop	r13
    2b9c:	cf 90       	pop	r12
    2b9e:	bf 90       	pop	r11
    2ba0:	08 95       	ret

00002ba2 <__udivmodqi4>:
    2ba2:	99 1b       	sub	r25, r25
    2ba4:	79 e0       	ldi	r23, 0x09	; 9
    2ba6:	04 c0       	rjmp	.+8      	; 0x2bb0 <__udivmodqi4_ep>

00002ba8 <__udivmodqi4_loop>:
    2ba8:	99 1f       	adc	r25, r25
    2baa:	96 17       	cp	r25, r22
    2bac:	08 f0       	brcs	.+2      	; 0x2bb0 <__udivmodqi4_ep>
    2bae:	96 1b       	sub	r25, r22

00002bb0 <__udivmodqi4_ep>:
    2bb0:	88 1f       	adc	r24, r24
    2bb2:	7a 95       	dec	r23
    2bb4:	c9 f7       	brne	.-14     	; 0x2ba8 <__udivmodqi4_loop>
    2bb6:	80 95       	com	r24
    2bb8:	08 95       	ret

00002bba <__divmodqi4>:
    2bba:	87 fb       	bst	r24, 7
    2bbc:	08 2e       	mov	r0, r24
    2bbe:	06 26       	eor	r0, r22
    2bc0:	87 fd       	sbrc	r24, 7
    2bc2:	81 95       	neg	r24
    2bc4:	67 fd       	sbrc	r22, 7
    2bc6:	61 95       	neg	r22
    2bc8:	ec df       	rcall	.-40     	; 0x2ba2 <__udivmodqi4>
    2bca:	0e f4       	brtc	.+2      	; 0x2bce <__divmodqi4_1>
    2bcc:	91 95       	neg	r25

00002bce <__divmodqi4_1>:
    2bce:	07 fc       	sbrc	r0, 7
    2bd0:	81 95       	neg	r24

00002bd2 <__divmodqi4_exit>:
    2bd2:	08 95       	ret

00002bd4 <__udivmodhi4>:
    2bd4:	aa 1b       	sub	r26, r26
    2bd6:	bb 1b       	sub	r27, r27
    2bd8:	51 e1       	ldi	r21, 0x11	; 17
    2bda:	07 c0       	rjmp	.+14     	; 0x2bea <__udivmodhi4_ep>

00002bdc <__udivmodhi4_loop>:
    2bdc:	aa 1f       	adc	r26, r26
    2bde:	bb 1f       	adc	r27, r27
    2be0:	a6 17       	cp	r26, r22
    2be2:	b7 07       	cpc	r27, r23
    2be4:	10 f0       	brcs	.+4      	; 0x2bea <__udivmodhi4_ep>
    2be6:	a6 1b       	sub	r26, r22
    2be8:	b7 0b       	sbc	r27, r23

00002bea <__udivmodhi4_ep>:
    2bea:	88 1f       	adc	r24, r24
    2bec:	99 1f       	adc	r25, r25
    2bee:	5a 95       	dec	r21
    2bf0:	a9 f7       	brne	.-22     	; 0x2bdc <__udivmodhi4_loop>
    2bf2:	80 95       	com	r24
    2bf4:	90 95       	com	r25
    2bf6:	bc 01       	movw	r22, r24
    2bf8:	cd 01       	movw	r24, r26
    2bfa:	08 95       	ret

00002bfc <__divmodhi4>:
    2bfc:	97 fb       	bst	r25, 7
    2bfe:	09 2e       	mov	r0, r25
    2c00:	07 26       	eor	r0, r23
    2c02:	0a d0       	rcall	.+20     	; 0x2c18 <__divmodhi4_neg1>
    2c04:	77 fd       	sbrc	r23, 7
    2c06:	04 d0       	rcall	.+8      	; 0x2c10 <__divmodhi4_neg2>
    2c08:	e5 df       	rcall	.-54     	; 0x2bd4 <__udivmodhi4>
    2c0a:	06 d0       	rcall	.+12     	; 0x2c18 <__divmodhi4_neg1>
    2c0c:	00 20       	and	r0, r0
    2c0e:	1a f4       	brpl	.+6      	; 0x2c16 <__divmodhi4_exit>

00002c10 <__divmodhi4_neg2>:
    2c10:	70 95       	com	r23
    2c12:	61 95       	neg	r22
    2c14:	7f 4f       	sbci	r23, 0xFF	; 255

00002c16 <__divmodhi4_exit>:
    2c16:	08 95       	ret

00002c18 <__divmodhi4_neg1>:
    2c18:	f6 f7       	brtc	.-4      	; 0x2c16 <__divmodhi4_exit>
    2c1a:	90 95       	com	r25
    2c1c:	81 95       	neg	r24
    2c1e:	9f 4f       	sbci	r25, 0xFF	; 255
    2c20:	08 95       	ret

00002c22 <_exit>:
    2c22:	f8 94       	cli

00002c24 <__stop_program>:
    2c24:	ff cf       	rjmp	.-2      	; 0x2c24 <__stop_program>
